
Access_Control.elf:     file format elf32-avr

Sections:
Idx Name          Size      VMA       LMA       File off  Algn
  0 .data         00000114  00800100  000021f0  00002284  2**0
                  CONTENTS, ALLOC, LOAD, DATA
  1 .text         000021f0  00000000  00000000  00000094  2**1
                  CONTENTS, ALLOC, LOAD, READONLY, CODE
  2 .bss          0000000d  00800214  00800214  00002398  2**0
                  ALLOC
  3 .comment      0000005c  00000000  00000000  00002398  2**0
                  CONTENTS, READONLY
  4 .note.gnu.avr.deviceinfo 00000040  00000000  00000000  000023f4  2**2
                  CONTENTS, READONLY
  5 .debug_aranges 000006c8  00000000  00000000  00002434  2**0
                  CONTENTS, READONLY, DEBUGGING
  6 .debug_info   00004fb3  00000000  00000000  00002afc  2**0
                  CONTENTS, READONLY, DEBUGGING
  7 .debug_abbrev 00000fe8  00000000  00000000  00007aaf  2**0
                  CONTENTS, READONLY, DEBUGGING
  8 .debug_line   0000399f  00000000  00000000  00008a97  2**0
                  CONTENTS, READONLY, DEBUGGING
  9 .debug_frame  00000e94  00000000  00000000  0000c438  2**2
                  CONTENTS, READONLY, DEBUGGING
 10 .debug_str    0000b691  00000000  00000000  0000d2cc  2**0
                  CONTENTS, READONLY, DEBUGGING
 11 .debug_loc    00003716  00000000  00000000  0001895d  2**0
                  CONTENTS, READONLY, DEBUGGING
 12 .debug_ranges 000006a8  00000000  00000000  0001c073  2**0
                  CONTENTS, READONLY, DEBUGGING
 13 .debug_macro  0000365c  00000000  00000000  0001c71b  2**0
                  CONTENTS, READONLY, DEBUGGING

Disassembly of section .text:

00000000 <__vectors>:
       0:	9f c0       	rjmp	.+318    	; 0x140 <__ctors_end>
       2:	00 00       	nop
       4:	b9 c0       	rjmp	.+370    	; 0x178 <__bad_interrupt>
       6:	00 00       	nop
       8:	b7 c0       	rjmp	.+366    	; 0x178 <__bad_interrupt>
       a:	00 00       	nop
       c:	b5 c0       	rjmp	.+362    	; 0x178 <__bad_interrupt>
       e:	00 00       	nop
      10:	b3 c0       	rjmp	.+358    	; 0x178 <__bad_interrupt>
      12:	00 00       	nop
      14:	b1 c0       	rjmp	.+354    	; 0x178 <__bad_interrupt>
      16:	00 00       	nop
      18:	af c0       	rjmp	.+350    	; 0x178 <__bad_interrupt>
      1a:	00 00       	nop
      1c:	ad c0       	rjmp	.+346    	; 0x178 <__bad_interrupt>
      1e:	00 00       	nop
      20:	ab c0       	rjmp	.+342    	; 0x178 <__bad_interrupt>
      22:	00 00       	nop
      24:	a9 c0       	rjmp	.+338    	; 0x178 <__bad_interrupt>
      26:	00 00       	nop
      28:	a7 c0       	rjmp	.+334    	; 0x178 <__bad_interrupt>
      2a:	00 00       	nop
      2c:	a5 c0       	rjmp	.+330    	; 0x178 <__bad_interrupt>
      2e:	00 00       	nop
      30:	a3 c0       	rjmp	.+326    	; 0x178 <__bad_interrupt>
      32:	00 00       	nop
      34:	a1 c0       	rjmp	.+322    	; 0x178 <__bad_interrupt>
      36:	00 00       	nop
      38:	9f c0       	rjmp	.+318    	; 0x178 <__bad_interrupt>
      3a:	00 00       	nop
      3c:	9d c0       	rjmp	.+314    	; 0x178 <__bad_interrupt>
      3e:	00 00       	nop
      40:	9b c0       	rjmp	.+310    	; 0x178 <__bad_interrupt>
      42:	00 00       	nop
      44:	99 c0       	rjmp	.+306    	; 0x178 <__bad_interrupt>
      46:	00 00       	nop
      48:	97 c0       	rjmp	.+302    	; 0x178 <__bad_interrupt>
      4a:	00 00       	nop
      4c:	95 c0       	rjmp	.+298    	; 0x178 <__bad_interrupt>
      4e:	00 00       	nop
      50:	93 c0       	rjmp	.+294    	; 0x178 <__bad_interrupt>
      52:	00 00       	nop
      54:	91 c0       	rjmp	.+290    	; 0x178 <__bad_interrupt>
      56:	00 00       	nop
      58:	8f c0       	rjmp	.+286    	; 0x178 <__bad_interrupt>
      5a:	00 00       	nop
      5c:	8d c0       	rjmp	.+282    	; 0x178 <__bad_interrupt>
      5e:	00 00       	nop
      60:	8b c0       	rjmp	.+278    	; 0x178 <__bad_interrupt>
      62:	00 00       	nop
      64:	89 c0       	rjmp	.+274    	; 0x178 <__bad_interrupt>
      66:	00 00       	nop
      68:	8c 08       	sbc	r8, r12
      6a:	20 08       	sbc	r2, r0
      6c:	20 08       	sbc	r2, r0
      6e:	20 08       	sbc	r2, r0
      70:	20 08       	sbc	r2, r0
      72:	8c 08       	sbc	r8, r12
      74:	8c 08       	sbc	r8, r12
      76:	20 08       	sbc	r2, r0
      78:	20 08       	sbc	r2, r0
      7a:	8c 08       	sbc	r8, r12
      7c:	20 08       	sbc	r2, r0
      7e:	20 08       	sbc	r2, r0
      80:	8c 08       	sbc	r8, r12
      82:	20 08       	sbc	r2, r0
      84:	20 08       	sbc	r2, r0
      86:	20 08       	sbc	r2, r0
      88:	8c 08       	sbc	r8, r12
      8a:	20 08       	sbc	r2, r0
      8c:	8e 08       	sbc	r8, r14
      8e:	8e 08       	sbc	r8, r14
      90:	8e 08       	sbc	r8, r14
      92:	8e 08       	sbc	r8, r14
      94:	41 08       	sbc	r4, r1
      96:	8e 08       	sbc	r8, r14
      98:	8e 08       	sbc	r8, r14
      9a:	8e 08       	sbc	r8, r14
      9c:	44 08       	sbc	r4, r4
      9e:	8e 08       	sbc	r8, r14
      a0:	8e 08       	sbc	r8, r14
      a2:	47 08       	sbc	r4, r7
      a4:	8e 08       	sbc	r8, r14
      a6:	8e 08       	sbc	r8, r14
      a8:	8e 08       	sbc	r8, r14
      aa:	8e 08       	sbc	r8, r14
      ac:	8e 08       	sbc	r8, r14
      ae:	8e 08       	sbc	r8, r14
      b0:	90 08       	sbc	r9, r0
      b2:	90 08       	sbc	r9, r0
      b4:	90 08       	sbc	r9, r0
      b6:	90 08       	sbc	r9, r0
      b8:	66 08       	sbc	r6, r6
      ba:	90 08       	sbc	r9, r0
      bc:	90 08       	sbc	r9, r0
      be:	90 08       	sbc	r9, r0
      c0:	69 08       	sbc	r6, r9
      c2:	90 08       	sbc	r9, r0
      c4:	90 08       	sbc	r9, r0
      c6:	6c 08       	sbc	r6, r12
      c8:	90 08       	sbc	r9, r0
      ca:	90 08       	sbc	r9, r0
      cc:	90 08       	sbc	r9, r0
      ce:	90 08       	sbc	r9, r0
      d0:	90 08       	sbc	r9, r0
      d2:	90 08       	sbc	r9, r0
      d4:	b5 08       	sbc	r11, r5
      d6:	ba 08       	sbc	r11, r10
      d8:	ba 08       	sbc	r11, r10
      da:	ba 08       	sbc	r11, r10
      dc:	d0 08       	sbc	r13, r0
      de:	b5 08       	sbc	r11, r5
      e0:	b5 08       	sbc	r11, r5
      e2:	ba 08       	sbc	r11, r10
      e4:	d0 08       	sbc	r13, r0
      e6:	b5 08       	sbc	r11, r5
      e8:	ba 08       	sbc	r11, r10
      ea:	d0 08       	sbc	r13, r0
      ec:	b5 08       	sbc	r11, r5
      ee:	ba 08       	sbc	r11, r10
      f0:	ba 08       	sbc	r11, r10
      f2:	ba 08       	sbc	r11, r10
      f4:	b5 08       	sbc	r11, r5
      f6:	ba 08       	sbc	r11, r10
      f8:	b4 09       	sbc	r27, r4
      fa:	cf 09       	sbc	r28, r15
      fc:	cf 09       	sbc	r28, r15
      fe:	cf 09       	sbc	r28, r15
     100:	ea 09       	sbc	r30, r10
     102:	cf 09       	sbc	r28, r15
     104:	b4 09       	sbc	r27, r4
     106:	cf 09       	sbc	r28, r15
     108:	ea 09       	sbc	r30, r10
     10a:	b4 09       	sbc	r27, r4
     10c:	cf 09       	sbc	r28, r15
     10e:	ea 09       	sbc	r30, r10
     110:	b4 09       	sbc	r27, r4
     112:	cf 09       	sbc	r28, r15
     114:	cf 09       	sbc	r28, r15
     116:	cf 09       	sbc	r28, r15
     118:	b4 09       	sbc	r27, r4
     11a:	cf 09       	sbc	r28, r15
     11c:	cf 0b       	sbc	r28, r31
     11e:	cf 0b       	sbc	r28, r31
     120:	df 0b       	sbc	r29, r31
     122:	d1 0b       	sbc	r29, r17
     124:	d1 0b       	sbc	r29, r17
     126:	d3 0b       	sbc	r29, r19
     128:	d3 0b       	sbc	r29, r19
     12a:	d3 0b       	sbc	r29, r19
     12c:	d3 0b       	sbc	r29, r19
     12e:	d5 0b       	sbc	r29, r21
     130:	d5 0b       	sbc	r29, r21
     132:	d5 0b       	sbc	r29, r21
     134:	d7 0b       	sbc	r29, r23
     136:	d7 0b       	sbc	r29, r23
     138:	d9 0b       	sbc	r29, r25
     13a:	db 0b       	sbc	r29, r27
     13c:	dd 0b       	sbc	r29, r29
     13e:	dd 0b       	sbc	r29, r29

00000140 <__ctors_end>:
     140:	11 24       	eor	r1, r1
     142:	1f be       	out	0x3f, r1	; 63
     144:	cf ef       	ldi	r28, 0xFF	; 255
     146:	d8 e0       	ldi	r29, 0x08	; 8
     148:	de bf       	out	0x3e, r29	; 62
     14a:	cd bf       	out	0x3d, r28	; 61

0000014c <__do_copy_data>:
     14c:	12 e0       	ldi	r17, 0x02	; 2
     14e:	a0 e0       	ldi	r26, 0x00	; 0
     150:	b1 e0       	ldi	r27, 0x01	; 1
     152:	e0 ef       	ldi	r30, 0xF0	; 240
     154:	f1 e2       	ldi	r31, 0x21	; 33
     156:	02 c0       	rjmp	.+4      	; 0x15c <__do_copy_data+0x10>
     158:	05 90       	lpm	r0, Z+
     15a:	0d 92       	st	X+, r0
     15c:	a4 31       	cpi	r26, 0x14	; 20
     15e:	b1 07       	cpc	r27, r17
     160:	d9 f7       	brne	.-10     	; 0x158 <__do_copy_data+0xc>

00000162 <__do_clear_bss>:
     162:	22 e0       	ldi	r18, 0x02	; 2
     164:	a4 e1       	ldi	r26, 0x14	; 20
     166:	b2 e0       	ldi	r27, 0x02	; 2
     168:	01 c0       	rjmp	.+2      	; 0x16c <.do_clear_bss_start>

0000016a <.do_clear_bss_loop>:
     16a:	1d 92       	st	X+, r1

0000016c <.do_clear_bss_start>:
     16c:	a1 32       	cpi	r26, 0x21	; 33
     16e:	b2 07       	cpc	r27, r18
     170:	e1 f7       	brne	.-8      	; 0x16a <.do_clear_bss_loop>
     172:	03 d0       	rcall	.+6      	; 0x17a <main>
     174:	0c 94 f6 10 	jmp	0x21ec	; 0x21ec <_exit>

00000178 <__bad_interrupt>:
     178:	43 cf       	rjmp	.-378    	; 0x0 <__vectors>

0000017a <main>:
systemFlags_t systemFlags;
// -----------------------------------------------------------------------------
// Main function ---------------------------------------------------------------

int main(void)
{
     17a:	cf 93       	push	r28
     17c:	df 93       	push	r29
     17e:	cd b7       	in	r28, 0x3d	; 61
     180:	de b7       	in	r29, 0x3e	; 62
     182:	c4 50       	subi	r28, 0x04	; 4
     184:	d1 40       	sbci	r29, 0x01	; 1
     186:	0f b6       	in	r0, 0x3f	; 63
     188:	f8 94       	cli
     18a:	de bf       	out	0x3e, r29	; 62
     18c:	0f be       	out	0x3f, r0	; 63
     18e:	cd bf       	out	0x3d, r28	; 61
	setMask(LcdDataDdr, 0xFF, 0);
     190:	8a b1       	in	r24, 0x0a	; 10
     192:	8f ef       	ldi	r24, 0xFF	; 255
     194:	8a b9       	out	0x0a, r24	; 10
	setMask(ColumnDdr, 0x0F, 0);
     196:	87 b1       	in	r24, 0x07	; 7
     198:	8f 60       	ori	r24, 0x0F	; 15
     19a:	87 b9       	out	0x07, r24	; 7
	systemFlags.allFlags = 0;
     19c:	10 92 16 02 	sts	0x0216, r1	; 0x800216 <systemFlags>
	
	// Variable declaration
	uint8	aux1				= 0;
	uint8	actual_key			= 0xFF;
	uint8	password[4]			= {0,0,0,0};
     1a0:	19 82       	std	Y+1, r1	; 0x01
     1a2:	1a 82       	std	Y+2, r1	; 0x02
     1a4:	1b 82       	std	Y+3, r1	; 0x03
     1a6:	1c 82       	std	Y+4, r1	; 0x04
	uint8	digit_counter		= 0;
	uint8	right_digits		= 0;
	uint16	eeprom_write_addr	= 0x0000;
	
	//EEPROM Config
	eepromSetOperationMode(EEPROM_ERASE_WRITE);
     1a8:	80 e0       	ldi	r24, 0x00	; 0
     1aa:	ad d2       	rcall	.+1370   	; 0x706 <eepromSetOperationMode>
	//eepromReadyActivateInterrupt();
	
	// Keypad Config
	keypadResetConfiguration(&keypad);
     1ac:	86 e0       	ldi	r24, 0x06	; 6
     1ae:	91 e0       	ldi	r25, 0x01	; 1
     1b0:	c8 d2       	rcall	.+1424   	; 0x742 <keypadResetConfiguration>
	keypadSetPort(&keypad, &LineDdr, &LinePort, &LinePin, PB0, &ColumnDdr, &ColumnPort, PC0);
     1b2:	a1 2c       	mov	r10, r1
     1b4:	0f 2e       	mov	r0, r31
     1b6:	f8 e2       	ldi	r31, 0x28	; 40
     1b8:	cf 2e       	mov	r12, r31
     1ba:	d1 2c       	mov	r13, r1
     1bc:	f0 2d       	mov	r31, r0
     1be:	0f 2e       	mov	r0, r31
     1c0:	f7 e2       	ldi	r31, 0x27	; 39
     1c2:	ef 2e       	mov	r14, r31
     1c4:	f1 2c       	mov	r15, r1
     1c6:	f0 2d       	mov	r31, r0
     1c8:	00 e0       	ldi	r16, 0x00	; 0
     1ca:	23 e2       	ldi	r18, 0x23	; 35
     1cc:	30 e0       	ldi	r19, 0x00	; 0
     1ce:	45 e2       	ldi	r20, 0x25	; 37
     1d0:	50 e0       	ldi	r21, 0x00	; 0
     1d2:	64 e2       	ldi	r22, 0x24	; 36
     1d4:	70 e0       	ldi	r23, 0x00	; 0
     1d6:	86 e0       	ldi	r24, 0x06	; 6
     1d8:	91 e0       	ldi	r25, 0x01	; 1
     1da:	e5 d2       	rcall	.+1482   	; 0x7a6 <keypadSetPort>
	keypadSetKeys(&keypad, KEYPAD_4X4,  0x01, 0x02, 0x03, 0x0A,
     1dc:	1f 92       	push	r1
     1de:	8d e0       	ldi	r24, 0x0D	; 13
     1e0:	8f 93       	push	r24
     1e2:	1f 92       	push	r1
     1e4:	8f e0       	ldi	r24, 0x0F	; 15
     1e6:	8f 93       	push	r24
     1e8:	1f 92       	push	r1
     1ea:	1f 92       	push	r1
     1ec:	1f 92       	push	r1
     1ee:	8e e0       	ldi	r24, 0x0E	; 14
     1f0:	8f 93       	push	r24
     1f2:	1f 92       	push	r1
     1f4:	8c e0       	ldi	r24, 0x0C	; 12
     1f6:	8f 93       	push	r24
     1f8:	1f 92       	push	r1
     1fa:	89 e0       	ldi	r24, 0x09	; 9
     1fc:	8f 93       	push	r24
     1fe:	1f 92       	push	r1
     200:	88 e0       	ldi	r24, 0x08	; 8
     202:	8f 93       	push	r24
     204:	1f 92       	push	r1
     206:	87 e0       	ldi	r24, 0x07	; 7
     208:	8f 93       	push	r24
     20a:	1f 92       	push	r1
     20c:	8b e0       	ldi	r24, 0x0B	; 11
     20e:	8f 93       	push	r24
     210:	1f 92       	push	r1
     212:	86 e0       	ldi	r24, 0x06	; 6
     214:	8f 93       	push	r24
     216:	1f 92       	push	r1
     218:	85 e0       	ldi	r24, 0x05	; 5
     21a:	8f 93       	push	r24
     21c:	1f 92       	push	r1
     21e:	84 e0       	ldi	r24, 0x04	; 4
     220:	8f 93       	push	r24
     222:	1f 92       	push	r1
     224:	8a e0       	ldi	r24, 0x0A	; 10
     226:	8f 93       	push	r24
     228:	1f 92       	push	r1
     22a:	83 e0       	ldi	r24, 0x03	; 3
     22c:	8f 93       	push	r24
     22e:	1f 92       	push	r1
     230:	82 e0       	ldi	r24, 0x02	; 2
     232:	8f 93       	push	r24
     234:	1f 92       	push	r1
     236:	81 e0       	ldi	r24, 0x01	; 1
     238:	8f 93       	push	r24
     23a:	8f 93       	push	r24
     23c:	86 e0       	ldi	r24, 0x06	; 6
     23e:	91 e0       	ldi	r25, 0x01	; 1
     240:	9f 93       	push	r25
     242:	8f 93       	push	r24
     244:	db d2       	rcall	.+1462   	; 0x7fc <keypadSetKeys>
										0x04, 0x05, 0x06, 0x0B,
										0x07, 0x08, 0x09, 0x0C,
										0x0E, 0x00, 0x0F, 0x0D);
	keypadInit(&keypad, 20);
     246:	0f b6       	in	r0, 0x3f	; 63
     248:	f8 94       	cli
     24a:	de bf       	out	0x3e, r29	; 62
     24c:	0f be       	out	0x3f, r0	; 63
     24e:	cd bf       	out	0x3d, r28	; 61
     250:	64 e1       	ldi	r22, 0x14	; 20
     252:	86 e0       	ldi	r24, 0x06	; 6
     254:	91 e0       	ldi	r25, 0x01	; 1
	
	// LCD Configuration
	lcdResetConfiguration(&lcd_display);
     256:	7e d3       	rcall	.+1788   	; 0x954 <keypadInit>
     258:	85 e1       	ldi	r24, 0x15	; 21
     25a:	91 e0       	ldi	r25, 0x01	; 1
	lcdClearScreen(&lcd_display);
     25c:	5b d5       	rcall	.+2742   	; 0xd14 <lcdResetConfiguration>
     25e:	85 e1       	ldi	r24, 0x15	; 21
     260:	91 e0       	ldi	r25, 0x01	; 1
     262:	a8 d6       	rcall	.+3408   	; 0xfb4 <lcdClearScreen>
	lcdSetControlPort(&lcd_display, &LcdControlDdr, &LcdControlPort, LCD_ENABLE, LCD_RESET);
     264:	05 e0       	ldi	r16, 0x05	; 5
     266:	24 e0       	ldi	r18, 0x04	; 4
     268:	4b e2       	ldi	r20, 0x2B	; 43
     26a:	50 e0       	ldi	r21, 0x00	; 0
     26c:	6a e2       	ldi	r22, 0x2A	; 42
     26e:	70 e0       	ldi	r23, 0x00	; 0
     270:	85 e1       	ldi	r24, 0x15	; 21
     272:	91 e0       	ldi	r25, 0x01	; 1
     274:	9c d5       	rcall	.+2872   	; 0xdae <lcdSetControlPort>
	lcdSetDataPort(&lcd_display, &LcdDataDdr, &LcdDataPort, PD0);
     276:	20 e0       	ldi	r18, 0x00	; 0
     278:	4b e2       	ldi	r20, 0x2B	; 43
     27a:	50 e0       	ldi	r21, 0x00	; 0
     27c:	6a e2       	ldi	r22, 0x2A	; 42
     27e:	70 e0       	ldi	r23, 0x00	; 0
     280:	85 e1       	ldi	r24, 0x15	; 21
     282:	91 e0       	ldi	r25, 0x01	; 1
     284:	85 d5       	rcall	.+2826   	; 0xd90 <lcdSetDataPort>
	lcdInit(&lcd_display, LCD_16X2, LCD_FONT_5X8);
     286:	40 e0       	ldi	r20, 0x00	; 0
     288:	68 e0       	ldi	r22, 0x08	; 8
     28a:	85 e1       	ldi	r24, 0x15	; 21
     28c:	91 e0       	ldi	r25, 0x01	; 1
     28e:	0e 94 90 09 	call	0x1320	; 0x1320 <lcdInit>
	lcdStdio(&lcd_display);
     292:	85 e1       	ldi	r24, 0x15	; 21
     294:	91 e0       	ldi	r25, 0x01	; 1
     296:	a4 d5       	rcall	.+2888   	; 0xde0 <lcdStdio>
     298:	80 e3       	ldi	r24, 0x30	; 48
	
	// Variable initialization
	
	printf("AccessControl_v1\n");													//	
     29a:	91 e0       	ldi	r25, 0x01	; 1
     29c:	0e 94 0d 0e 	call	0x1c1a	; 0x1c1a <puts>
     2a0:	9f ef       	ldi	r25, 0xFF	; 255
	#else
		//round up by default
		__ticks_dc = (uint32_t)(ceil(fabs(__tmp)));
	#endif

	__builtin_avr_delay_cycles(__ticks_dc);
     2a2:	e7 ea       	ldi	r30, 0xA7	; 167
     2a4:	f1 e6       	ldi	r31, 0x61	; 97
     2a6:	91 50       	subi	r25, 0x01	; 1
     2a8:	e0 40       	sbci	r30, 0x00	; 0
     2aa:	f0 40       	sbci	r31, 0x00	; 0
     2ac:	e1 f7       	brne	.-8      	; 0x2a6 <main+0x12c>
     2ae:	00 c0       	rjmp	.+0      	; 0x2b0 <main+0x136>
	_delay_ms(2000);															// tela de versão
	lcdClearScreen(&lcd_display);												//
     2b0:	00 00       	nop
     2b2:	85 e1       	ldi	r24, 0x15	; 21
     2b4:	91 e0       	ldi	r25, 0x01	; 1
     2b6:	7e d6       	rcall	.+3324   	; 0xfb4 <lcdClearScreen>
	
	
	actual_key = keypadRead(&keypad);											// leitura de tecla para entrada no modo de cadastro de senha
     2b8:	86 e0       	ldi	r24, 0x06	; 6
     2ba:	91 e0       	ldi	r25, 0x01	; 1
     2bc:	6b d4       	rcall	.+2262   	; 0xb94 <keypadRead>
	setBit(PORTD, GREEN_LED);
     2be:	5f 9a       	sbi	0x0b, 7	; 11
	
	if(actual_key==0x0E)														// Tratamento do cadastro de senha
     2c0:	8e 30       	cpi	r24, 0x0E	; 14
     2c2:	09 f0       	breq	.+2      	; 0x2c6 <main+0x14c>
     2c4:	cb c0       	rjmp	.+406    	; 0x45c <__LOCK_REGION_LENGTH__+0x5c>
	{
		systemFlags.pwRegister = 1;
     2c6:	80 91 16 02 	lds	r24, 0x0216	; 0x800216 <systemFlags>
     2ca:	81 60       	ori	r24, 0x01	; 1
     2cc:	80 93 16 02 	sts	0x0216, r24	; 0x800216 <systemFlags>
		pw_counter = eepromRead(eeprom_write_addr);								// Primeira posição da eeprom guarda a quantidade de senhas salvas (MAX 64 SENHAS)
     2d0:	80 e0       	ldi	r24, 0x00	; 0
     2d2:	90 e0       	ldi	r25, 0x00	; 0
     2d4:	2e d2       	rcall	.+1116   	; 0x732 <eepromRead>
		if(pw_counter>64)														// Se já foram feitos mais de 64 cadastros de senhas ou outro dado aleatorio
     2d6:	81 34       	cpi	r24, 0x41	; 65
     2d8:	20 f0       	brcs	.+8      	; 0x2e2 <main+0x168>
		{																		//  neste slot de memoria, houve corrupção de dados inicia-se a sobrescrição de senhas
			eeprom_write_addr = 0x0000;
			eepromWrite(eeprom_write_addr, 0);
     2da:	60 e0       	ldi	r22, 0x00	; 0
     2dc:	80 e0       	ldi	r24, 0x00	; 0
     2de:	90 e0       	ldi	r25, 0x00	; 0
     2e0:	1b d2       	rcall	.+1078   	; 0x718 <eepromWrite>
     2e2:	80 e0       	ldi	r24, 0x00	; 0
		}
		pw_counter = eepromRead(eeprom_write_addr);
     2e4:	90 e0       	ldi	r25, 0x00	; 0
     2e6:	25 d2       	rcall	.+1098   	; 0x732 <eepromRead>
     2e8:	d8 2e       	mov	r13, r24
     2ea:	08 2f       	mov	r16, r24
     2ec:	10 e0       	ldi	r17, 0x00	; 0
		eeprom_write_addr = pw_counter*4 + 1;								// seta o endereço da proximo cadastro para logo após o ultimo cadastro
     2ee:	00 0f       	add	r16, r16
     2f0:	11 1f       	adc	r17, r17
     2f2:	00 0f       	add	r16, r16
     2f4:	11 1f       	adc	r17, r17
     2f6:	0f 5f       	subi	r16, 0xFF	; 255
     2f8:	1f 4f       	sbci	r17, 0xFF	; 255
     2fa:	80 91 16 02 	lds	r24, 0x0216	; 0x800216 <systemFlags>
		
		while(systemFlags.pwRegister)																//
     2fe:	80 ff       	sbrs	r24, 0
     300:	ad c0       	rjmp	.+346    	; 0x45c <__LOCK_REGION_LENGTH__+0x5c>
     302:	0f 2e       	mov	r0, r31
     304:	f2 e5       	ldi	r31, 0x52	; 82
				
			eepromWrite(0x0000, pw_counter);
			eeprom_write_addr+=4;
			
			lcdClearScreen(&lcd_display);
			printf("     senha     \n   cadastrada   ");
     306:	4f 2e       	mov	r4, r31
     308:	f1 e0       	ldi	r31, 0x01	; 1
     30a:	5f 2e       	mov	r5, r31
     30c:	f0 2d       	mov	r31, r0
     30e:	0f 2e       	mov	r0, r31
     310:	f3 e7       	ldi	r31, 0x73	; 115
			_delay_ms(2000);
			lcdClearScreen(&lcd_display);
			printf("(1)novo cadastro\n(2)continuar");
     312:	6f 2e       	mov	r6, r31
     314:	f1 e0       	ldi	r31, 0x01	; 1
     316:	7f 2e       	mov	r7, r31
     318:	f0 2d       	mov	r31, r0
     31a:	0f 2e       	mov	r0, r31
     31c:	f3 eb       	ldi	r31, 0xB3	; 179
			}
			
			else if(actual_key == 0x01)
			{
				systemFlags.pwRegister = 1;
				printf("  novo cadastro ");
     31e:	8f 2e       	mov	r8, r31
     320:	f1 e0       	ldi	r31, 0x01	; 1
     322:	9f 2e       	mov	r9, r31
     324:	f0 2d       	mov	r31, r0
     326:	0f 2e       	mov	r0, r31
     328:	f1 e9       	ldi	r31, 0x91	; 145
			
			lcdClearScreen(&lcd_display);
			if(actual_key==0x02)
			{
				systemFlags.pwRegister = 0;
				printf("    cadastro    \n    concluido   ");
     32a:	af 2e       	mov	r10, r31
     32c:	f1 e0       	ldi	r31, 0x01	; 1
     32e:	bf 2e       	mov	r11, r31
     330:	f0 2d       	mov	r31, r0
     332:	81 e4       	ldi	r24, 0x41	; 65
		pw_counter = eepromRead(eeprom_write_addr);
		eeprom_write_addr = pw_counter*4 + 1;								// seta o endereço da proximo cadastro para logo após o ultimo cadastro
		
		while(systemFlags.pwRegister)																//
		{																							//						
			printf("Cadastre a senha\n");															//
     334:	91 e0       	ldi	r25, 0x01	; 1
     336:	0e 94 0d 0e 	call	0x1c1a	; 0x1c1a <puts>
     33a:	ce 01       	movw	r24, r28
     33c:	01 96       	adiw	r24, 0x01	; 1
     33e:	1c 01       	movw	r2, r24
     340:	78 01       	movw	r14, r16
     342:	c1 2c       	mov	r12, r1
																									// 
			while(digit_counter<4)																	//
			{																						//
				actual_key = keypadRead(&keypad);													//
     344:	86 e0       	ldi	r24, 0x06	; 6
     346:	91 e0       	ldi	r25, 0x01	; 1
     348:	25 d4       	rcall	.+2122   	; 0xb94 <keypadRead>
																									//
				if(actual_key != 0xFF)																//
     34a:	8f 3f       	cpi	r24, 0xFF	; 255
     34c:	b1 f0       	breq	.+44     	; 0x37a <main+0x200>
				{																					// Tratamento para captação dos 4 digitos da senha e sua gravação na eeprom
					password[digit_counter] = actual_key;											//
     34e:	f1 01       	movw	r30, r2
     350:	81 93       	st	Z+, r24
     352:	1f 01       	movw	r2, r30
					eepromWrite((eeprom_write_addr+digit_counter), password[digit_counter]);		//
     354:	68 2f       	mov	r22, r24
     356:	c7 01       	movw	r24, r14
     358:	df d1       	rcall	.+958    	; 0x718 <eepromWrite>
     35a:	8a e2       	ldi	r24, 0x2A	; 42
																									//
					printf("*");																	//
     35c:	90 e0       	ldi	r25, 0x00	; 0
     35e:	0e 94 08 0e 	call	0x1c10	; 0x1c10 <putchar>
     362:	61 e0       	ldi	r22, 0x01	; 1
					lcdCursorMove(&lcd_display, RIGHT);												//
     364:	85 e1       	ldi	r24, 0x15	; 21
     366:	91 e0       	ldi	r25, 0x01	; 1
     368:	43 d7       	rcall	.+3718   	; 0x11f0 <lcdCursorMove>
     36a:	c3 94       	inc	r12
     36c:	ff ef       	ldi	r31, 0xFF	; 255
																									//
					digit_counter++;																//
     36e:	ef 1a       	sub	r14, r31
     370:	ff 0a       	sbc	r15, r31
     372:	24 e0       	ldi	r18, 0x04	; 4
		
		while(systemFlags.pwRegister)																//
		{																							//						
			printf("Cadastre a senha\n");															//
																									// 
			while(digit_counter<4)																	//
     374:	c2 12       	cpse	r12, r18
     376:	e6 cf       	rjmp	.-52     	; 0x344 <main+0x1ca>
     378:	03 c0       	rjmp	.+6      	; 0x380 <main+0x206>
     37a:	83 e0       	ldi	r24, 0x03	; 3
     37c:	8c 15       	cp	r24, r12
     37e:	10 f7       	brcc	.-60     	; 0x344 <main+0x1ca>
					digit_counter++;																//
				}
			}
			digit_counter	= 0;
			
			if(pw_counter<64)
     380:	9f e3       	ldi	r25, 0x3F	; 63
     382:	9d 15       	cp	r25, r13
     384:	08 f0       	brcs	.+2      	; 0x388 <main+0x20e>
				pw_counter++;
     386:	d3 94       	inc	r13
				
			eepromWrite(0x0000, pw_counter);
     388:	6d 2d       	mov	r22, r13
     38a:	80 e0       	ldi	r24, 0x00	; 0
     38c:	90 e0       	ldi	r25, 0x00	; 0
     38e:	c4 d1       	rcall	.+904    	; 0x718 <eepromWrite>
     390:	0c 5f       	subi	r16, 0xFC	; 252
			eeprom_write_addr+=4;
     392:	1f 4f       	sbci	r17, 0xFF	; 255
			
			lcdClearScreen(&lcd_display);
     394:	85 e1       	ldi	r24, 0x15	; 21
     396:	91 e0       	ldi	r25, 0x01	; 1
     398:	0d d6       	rcall	.+3098   	; 0xfb4 <lcdClearScreen>
     39a:	5f 92       	push	r5
			printf("     senha     \n   cadastrada   ");
     39c:	4f 92       	push	r4
     39e:	0e 94 f5 0d 	call	0x1bea	; 0x1bea <printf>
     3a2:	ef ef       	ldi	r30, 0xFF	; 255
     3a4:	f7 ea       	ldi	r31, 0xA7	; 167
     3a6:	21 e6       	ldi	r18, 0x61	; 97
     3a8:	e1 50       	subi	r30, 0x01	; 1
     3aa:	f0 40       	sbci	r31, 0x00	; 0
     3ac:	20 40       	sbci	r18, 0x00	; 0
     3ae:	e1 f7       	brne	.-8      	; 0x3a8 <main+0x22e>
     3b0:	00 c0       	rjmp	.+0      	; 0x3b2 <main+0x238>
     3b2:	00 00       	nop
			_delay_ms(2000);
			lcdClearScreen(&lcd_display);
     3b4:	85 e1       	ldi	r24, 0x15	; 21
     3b6:	91 e0       	ldi	r25, 0x01	; 1
     3b8:	fd d5       	rcall	.+3066   	; 0xfb4 <lcdClearScreen>
			printf("(1)novo cadastro\n(2)continuar");
     3ba:	7f 92       	push	r7
     3bc:	6f 92       	push	r6
     3be:	0e 94 f5 0d 	call	0x1bea	; 0x1bea <printf>
			
			actual_key = keypadRead(&keypad);
     3c2:	86 e0       	ldi	r24, 0x06	; 6
     3c4:	91 e0       	ldi	r25, 0x01	; 1
     3c6:	e6 d3       	rcall	.+1996   	; 0xb94 <keypadRead>
     3c8:	f8 2e       	mov	r15, r24
			
			while((actual_key != 0x01) & (actual_key != 0x02))
     3ca:	8f ef       	ldi	r24, 0xFF	; 255
     3cc:	8f 0d       	add	r24, r15
     3ce:	0f 90       	pop	r0
     3d0:	0f 90       	pop	r0
     3d2:	0f 90       	pop	r0
     3d4:	0f 90       	pop	r0
     3d6:	82 30       	cpi	r24, 0x02	; 2
     3d8:	40 f0       	brcs	.+16     	; 0x3ea <main+0x270>
				actual_key = keypadRead(&keypad);
     3da:	86 e0       	ldi	r24, 0x06	; 6
     3dc:	91 e0       	ldi	r25, 0x01	; 1
     3de:	da d3       	rcall	.+1972   	; 0xb94 <keypadRead>
     3e0:	f8 2e       	mov	r15, r24
     3e2:	8f ef       	ldi	r24, 0xFF	; 255
			lcdClearScreen(&lcd_display);
			printf("(1)novo cadastro\n(2)continuar");
			
			actual_key = keypadRead(&keypad);
			
			while((actual_key != 0x01) & (actual_key != 0x02))
     3e4:	8f 0d       	add	r24, r15
     3e6:	82 30       	cpi	r24, 0x02	; 2
     3e8:	c0 f7       	brcc	.-16     	; 0x3da <main+0x260>
     3ea:	85 e1       	ldi	r24, 0x15	; 21
				actual_key = keypadRead(&keypad);
			
			lcdClearScreen(&lcd_display);
     3ec:	91 e0       	ldi	r25, 0x01	; 1
     3ee:	e2 d5       	rcall	.+3012   	; 0xfb4 <lcdClearScreen>
     3f0:	82 e0       	ldi	r24, 0x02	; 2
     3f2:	f8 12       	cpse	r15, r24
			if(actual_key==0x02)
     3f4:	15 c0       	rjmp	.+42     	; 0x420 <__LOCK_REGION_LENGTH__+0x20>
     3f6:	80 91 16 02 	lds	r24, 0x0216	; 0x800216 <systemFlags>
			{
				systemFlags.pwRegister = 0;
     3fa:	8e 7f       	andi	r24, 0xFE	; 254
     3fc:	80 93 16 02 	sts	0x0216, r24	; 0x800216 <systemFlags>
     400:	bf 92       	push	r11
     402:	af 92       	push	r10
				printf("    cadastro    \n    concluido   ");
     404:	0e 94 f5 0d 	call	0x1bea	; 0x1bea <printf>
     408:	9f ef       	ldi	r25, 0xFF	; 255
     40a:	e7 ea       	ldi	r30, 0xA7	; 167
     40c:	f1 e6       	ldi	r31, 0x61	; 97
     40e:	91 50       	subi	r25, 0x01	; 1
     410:	e0 40       	sbci	r30, 0x00	; 0
     412:	f0 40       	sbci	r31, 0x00	; 0
     414:	e1 f7       	brne	.-8      	; 0x40e <__LOCK_REGION_LENGTH__+0xe>
     416:	00 c0       	rjmp	.+0      	; 0x418 <__LOCK_REGION_LENGTH__+0x18>
     418:	00 00       	nop
     41a:	0f 90       	pop	r0
     41c:	0f 90       	pop	r0
     41e:	17 c0       	rjmp	.+46     	; 0x44e <__LOCK_REGION_LENGTH__+0x4e>
     420:	21 e0       	ldi	r18, 0x01	; 1
     422:	f2 12       	cpse	r15, r18
				_delay_ms(2000);
			}
			
			else if(actual_key == 0x01)
     424:	14 c0       	rjmp	.+40     	; 0x44e <__LOCK_REGION_LENGTH__+0x4e>
     426:	80 91 16 02 	lds	r24, 0x0216	; 0x800216 <systemFlags>
			{
				systemFlags.pwRegister = 1;
     42a:	81 60       	ori	r24, 0x01	; 1
     42c:	80 93 16 02 	sts	0x0216, r24	; 0x800216 <systemFlags>
     430:	9f 92       	push	r9
				printf("  novo cadastro ");
     432:	8f 92       	push	r8
     434:	0e 94 f5 0d 	call	0x1bea	; 0x1bea <printf>
     438:	8f ef       	ldi	r24, 0xFF	; 255
     43a:	97 ea       	ldi	r25, 0xA7	; 167
     43c:	e1 e6       	ldi	r30, 0x61	; 97
     43e:	81 50       	subi	r24, 0x01	; 1
     440:	90 40       	sbci	r25, 0x00	; 0
     442:	e0 40       	sbci	r30, 0x00	; 0
     444:	e1 f7       	brne	.-8      	; 0x43e <__LOCK_REGION_LENGTH__+0x3e>
     446:	00 c0       	rjmp	.+0      	; 0x448 <__LOCK_REGION_LENGTH__+0x48>
     448:	00 00       	nop
				_delay_ms(2000);
			}
			lcdClearScreen(&lcd_display);
     44a:	0f 90       	pop	r0
     44c:	0f 90       	pop	r0
     44e:	85 e1       	ldi	r24, 0x15	; 21
     450:	91 e0       	ldi	r25, 0x01	; 1
			eepromWrite(eeprom_write_addr, 0);
		}
		pw_counter = eepromRead(eeprom_write_addr);
		eeprom_write_addr = pw_counter*4 + 1;								// seta o endereço da proximo cadastro para logo após o ultimo cadastro
		
		while(systemFlags.pwRegister)																//
     452:	b0 d5       	rcall	.+2912   	; 0xfb4 <lcdClearScreen>
     454:	80 91 16 02 	lds	r24, 0x0216	; 0x800216 <systemFlags>
     458:	80 fd       	sbrc	r24, 0
			lcdClearScreen(&lcd_display);
		}
		
	}
	
	pw_counter = eepromRead(0x0000);
     45a:	6b cf       	rjmp	.-298    	; 0x332 <main+0x1b8>
     45c:	80 e0       	ldi	r24, 0x00	; 0
     45e:	90 e0       	ldi	r25, 0x00	; 0
     460:	68 d1       	rcall	.+720    	; 0x732 <eepromRead>
     462:	78 2e       	mov	r7, r24
	if(pw_counter>64)														// Se já foram feitos mais de 64 cadastros de senhas ou outro dado aleatorio
     464:	f0 e4       	ldi	r31, 0x40	; 64
     466:	f8 17       	cp	r31, r24
     468:	40 f4       	brcc	.+16     	; 0x47a <__LOCK_REGION_LENGTH__+0x7a>
	{																		//  neste slot de memoria, houve corrupção de dados inicia-se a sobrescrição de senhas
		eeprom_write_addr = 0x0000;
		eepromWrite(0x0000, 0);
     46a:	60 e0       	ldi	r22, 0x00	; 0
     46c:	80 e0       	ldi	r24, 0x00	; 0
     46e:	90 e0       	ldi	r25, 0x00	; 0
     470:	53 d1       	rcall	.+678    	; 0x718 <eepromWrite>
		pw_counter = eepromRead(0x0000);
     472:	80 e0       	ldi	r24, 0x00	; 0
     474:	90 e0       	ldi	r25, 0x00	; 0
     476:	5d d1       	rcall	.+698    	; 0x732 <eepromRead>
     478:	78 2e       	mov	r7, r24
     47a:	1f 92       	push	r1
	}
	printf("pw_counter = %d", pw_counter);
     47c:	7f 92       	push	r7
     47e:	84 ec       	ldi	r24, 0xC4	; 196
     480:	91 e0       	ldi	r25, 0x01	; 1
     482:	9f 93       	push	r25
     484:	8f 93       	push	r24
     486:	0e 94 f5 0d 	call	0x1bea	; 0x1bea <printf>
     48a:	2f ef       	ldi	r18, 0xFF	; 255
     48c:	87 ea       	ldi	r24, 0xA7	; 167
     48e:	91 e6       	ldi	r25, 0x61	; 97
     490:	21 50       	subi	r18, 0x01	; 1
     492:	80 40       	sbci	r24, 0x00	; 0
     494:	90 40       	sbci	r25, 0x00	; 0
     496:	e1 f7       	brne	.-8      	; 0x490 <__LOCK_REGION_LENGTH__+0x90>
     498:	00 c0       	rjmp	.+0      	; 0x49a <__LOCK_REGION_LENGTH__+0x9a>
     49a:	00 00       	nop
     49c:	85 e1       	ldi	r24, 0x15	; 21
	_delay_ms(2000);
	lcdClearScreen(&lcd_display);
     49e:	91 e0       	ldi	r25, 0x01	; 1
     4a0:	89 d5       	rcall	.+2834   	; 0xfb4 <lcdClearScreen>
     4a2:	0f 90       	pop	r0
     4a4:	0f 90       	pop	r0
	
	while(aux1<pw_counter)													//
     4a6:	0f 90       	pop	r0
     4a8:	0f 90       	pop	r0
     4aa:	77 20       	and	r7, r7
     4ac:	09 f4       	brne	.+2      	; 0x4b0 <__LOCK_REGION_LENGTH__+0xb0>
     4ae:	58 c0       	rjmp	.+176    	; 0x560 <__LOCK_REGION_LENGTH__+0x160>
     4b0:	8e 01       	movw	r16, r28
     4b2:	0b 5f       	subi	r16, 0xFB	; 251
     4b4:	1f 4f       	sbci	r17, 0xFF	; 255
     4b6:	cc 24       	eor	r12, r12
     4b8:	ca 94       	dec	r12
     4ba:	c7 0c       	add	r12, r7
     4bc:	d1 2c       	mov	r13, r1
     4be:	ef ef       	ldi	r30, 0xFF	; 255
     4c0:	ce 1a       	sub	r12, r30
     4c2:	de 0a       	sbc	r13, r30
     4c4:	0f 2e       	mov	r0, r31
     4c6:	f5 e0       	ldi	r31, 0x05	; 5
     4c8:	af 2e       	mov	r10, r31
     4ca:	b1 2c       	mov	r11, r1
     4cc:	f0 2d       	mov	r31, r0
     4ce:	e1 2c       	mov	r14, r1
     4d0:	f1 2c       	mov	r15, r1
     4d2:	0f 2e       	mov	r0, r31
		{
			saved_passwords[aux1][digit_counter]=eepromRead(1+(aux1*4+digit_counter));
			digit_counter++;	
		}
		digit_counter = 0;
		printf("senha %d=%d%d%d%d", aux1, saved_passwords[aux1][0],saved_passwords[aux1][1],saved_passwords[aux1][2],saved_passwords[aux1][3]);
     4d4:	f4 ed       	ldi	r31, 0xD4	; 212
     4d6:	4f 2e       	mov	r4, r31
     4d8:	f1 e0       	ldi	r31, 0x01	; 1
     4da:	5f 2e       	mov	r5, r31
     4dc:	f0 2d       	mov	r31, r0
     4de:	3a c0       	rjmp	.+116    	; 0x554 <__LOCK_REGION_LENGTH__+0x154>
     4e0:	c4 01       	movw	r24, r8
	
	while(aux1<pw_counter)													//
	{																		//	algoritmo de leitura das senhas da eeprom para RAM no inicio do programa						
		while(digit_counter<4)												//	PRECISA SER CORRIGIDO/MELHORADO, USAR STRUCT DE VETORES[?]
		{
			saved_passwords[aux1][digit_counter]=eepromRead(1+(aux1*4+digit_counter));
     4e2:	27 d1       	rcall	.+590    	; 0x732 <eepromRead>
     4e4:	f1 01       	movw	r30, r2
     4e6:	81 93       	st	Z+, r24
     4e8:	1f 01       	movw	r2, r30
     4ea:	ff ef       	ldi	r31, 0xFF	; 255
     4ec:	8f 1a       	sub	r8, r31
     4ee:	9f 0a       	sbc	r9, r31
     4f0:	a8 14       	cp	r10, r8
     4f2:	b9 04       	cpc	r11, r9
	_delay_ms(2000);
	lcdClearScreen(&lcd_display);
	
	while(aux1<pw_counter)													//
	{																		//	algoritmo de leitura das senhas da eeprom para RAM no inicio do programa						
		while(digit_counter<4)												//	PRECISA SER CORRIGIDO/MELHORADO, USAR STRUCT DE VETORES[?]
     4f4:	a9 f7       	brne	.-22     	; 0x4e0 <__LOCK_REGION_LENGTH__+0xe0>
     4f6:	f8 01       	movw	r30, r16
     4f8:	83 81       	ldd	r24, Z+3	; 0x03
		{
			saved_passwords[aux1][digit_counter]=eepromRead(1+(aux1*4+digit_counter));
			digit_counter++;	
		}
		digit_counter = 0;
		printf("senha %d=%d%d%d%d", aux1, saved_passwords[aux1][0],saved_passwords[aux1][1],saved_passwords[aux1][2],saved_passwords[aux1][3]);
     4fa:	1f 92       	push	r1
     4fc:	8f 93       	push	r24
     4fe:	82 81       	ldd	r24, Z+2	; 0x02
     500:	1f 92       	push	r1
     502:	8f 93       	push	r24
     504:	81 81       	ldd	r24, Z+1	; 0x01
     506:	1f 92       	push	r1
     508:	8f 93       	push	r24
     50a:	80 81       	ld	r24, Z
     50c:	1f 92       	push	r1
     50e:	8f 93       	push	r24
     510:	ff 92       	push	r15
     512:	ef 92       	push	r14
     514:	5f 92       	push	r5
     516:	4f 92       	push	r4
     518:	0e 94 f5 0d 	call	0x1bea	; 0x1bea <printf>
     51c:	ff ef       	ldi	r31, 0xFF	; 255
     51e:	27 ea       	ldi	r18, 0xA7	; 167
     520:	81 e6       	ldi	r24, 0x61	; 97
     522:	f1 50       	subi	r31, 0x01	; 1
     524:	20 40       	sbci	r18, 0x00	; 0
     526:	80 40       	sbci	r24, 0x00	; 0
     528:	e1 f7       	brne	.-8      	; 0x522 <__LOCK_REGION_LENGTH__+0x122>
     52a:	00 c0       	rjmp	.+0      	; 0x52c <__LOCK_REGION_LENGTH__+0x12c>
     52c:	00 00       	nop
     52e:	85 e1       	ldi	r24, 0x15	; 21
		_delay_ms(2000);
		lcdClearScreen(&lcd_display);
     530:	91 e0       	ldi	r25, 0x01	; 1
     532:	40 d5       	rcall	.+2688   	; 0xfb4 <lcdClearScreen>
     534:	9f ef       	ldi	r25, 0xFF	; 255
     536:	e9 1a       	sub	r14, r25
     538:	f9 0a       	sbc	r15, r25
     53a:	0c 5f       	subi	r16, 0xFC	; 252
     53c:	1f 4f       	sbci	r17, 0xFF	; 255
     53e:	e4 e0       	ldi	r30, 0x04	; 4
     540:	ae 0e       	add	r10, r30
     542:	b1 1c       	adc	r11, r1
     544:	0f b6       	in	r0, 0x3f	; 63
     546:	f8 94       	cli
	}
	printf("pw_counter = %d", pw_counter);
	_delay_ms(2000);
	lcdClearScreen(&lcd_display);
	
	while(aux1<pw_counter)													//
     548:	de bf       	out	0x3e, r29	; 62
     54a:	0f be       	out	0x3f, r0	; 63
     54c:	cd bf       	out	0x3d, r28	; 61
     54e:	ec 14       	cp	r14, r12
     550:	fd 04       	cpc	r15, r13
     552:	31 f0       	breq	.+12     	; 0x560 <__LOCK_REGION_LENGTH__+0x160>
     554:	45 01       	movw	r8, r10
     556:	94 e0       	ldi	r25, 0x04	; 4
     558:	89 1a       	sub	r8, r25
     55a:	91 08       	sbc	r9, r1
     55c:	18 01       	movw	r2, r16
     55e:	c0 cf       	rjmp	.-128    	; 0x4e0 <__LOCK_REGION_LENGTH__+0xe0>
		pw_counter = eepromRead(eeprom_write_addr);
		eeprom_write_addr = pw_counter*4 + 1;								// seta o endereço da proximo cadastro para logo após o ultimo cadastro
		
		while(systemFlags.pwRegister)																//
		{																							//						
			printf("Cadastre a senha\n");															//
     560:	78 94       	sei
     562:	10 e0       	ldi	r17, 0x00	; 0
		aux1++;
	}																																										
	aux1 = 0;	
		
	// Enable Global Interrupts
	sei();
     564:	0f 2e       	mov	r0, r31
	uint8	actual_key			= 0xFF;
	uint8	password[4]			= {0,0,0,0};
	uint8	saved_passwords[64][4];
	uint8	pw_counter			= 0;
	uint8	digit_counter		= 0;
	uint8	right_digits		= 0;
     566:	f6 ee       	ldi	r31, 0xE6	; 230
	// Enable Global Interrupts
	sei();
	
	while(1)
	{
		printf("Senha:");
     568:	af 2e       	mov	r10, r31
     56a:	f1 e0       	ldi	r31, 0x01	; 1
     56c:	bf 2e       	mov	r11, r31
     56e:	f0 2d       	mov	r31, r0
     570:	0f 2e       	mov	r0, r31
		digit_counter = 0;
		
		while(systemFlags.pwEntry)
		{
			lcdClearScreen(&lcd_display);
			printf("verificando...");
     572:	fd ee       	ldi	r31, 0xED	; 237
     574:	8f 2e       	mov	r8, r31
     576:	f1 e0       	ldi	r31, 0x01	; 1
     578:	9f 2e       	mov	r9, r31
     57a:	f0 2d       	mov	r31, r0
     57c:	0f 2e       	mov	r0, r31
				systemFlags.access = 0;
				printf("Liberado");
			}
			else
			{
				printf("acesso negado");
     57e:	f5 e0       	ldi	r31, 0x05	; 5
     580:	cf 2e       	mov	r12, r31
     582:	f2 e0       	ldi	r31, 0x02	; 2
     584:	df 2e       	mov	r13, r31
     586:	f0 2d       	mov	r31, r0
     588:	0f 2e       	mov	r0, r31
			lcdClearScreen(&lcd_display);
			if(systemFlags.access)
			{
				clrBit(PORTD, GREEN_LED);
				systemFlags.access = 0;
				printf("Liberado");
     58a:	fc ef       	ldi	r31, 0xFC	; 252
     58c:	ef 2e       	mov	r14, r31
     58e:	f1 e0       	ldi	r31, 0x01	; 1
     590:	ff 2e       	mov	r15, r31
     592:	f0 2d       	mov	r31, r0
     594:	bf 92       	push	r11
	// Enable Global Interrupts
	sei();
	
	while(1)
	{
		printf("Senha:");
     596:	af 92       	push	r10
     598:	0e 94 f5 0d 	call	0x1bea	; 0x1bea <printf>
     59c:	0f 90       	pop	r0
     59e:	0f 90       	pop	r0
		
		digit_counter = 0;
     5a0:	00 e0       	ldi	r16, 0x00	; 0
		while(digit_counter<4)
		{
			actual_key = keypadRead(&keypad);
     5a2:	86 e0       	ldi	r24, 0x06	; 6
     5a4:	91 e0       	ldi	r25, 0x01	; 1
     5a6:	f6 d2       	rcall	.+1516   	; 0xb94 <keypadRead>
     5a8:	8f 3f       	cpi	r24, 0xFF	; 255
			if(actual_key != 0xFF)
     5aa:	c9 f0       	breq	.+50     	; 0x5de <__LOCK_REGION_LENGTH__+0x1de>
     5ac:	9a 81       	ldd	r25, Y+2	; 0x02
			{
				password[0]				= password[1];
     5ae:	99 83       	std	Y+1, r25	; 0x01
     5b0:	9b 81       	ldd	r25, Y+3	; 0x03
				password[1]				= password[2];
     5b2:	9a 83       	std	Y+2, r25	; 0x02
				password[2]				= password[3];
     5b4:	9c 81       	ldd	r25, Y+4	; 0x04
     5b6:	9b 83       	std	Y+3, r25	; 0x03
				password[3]				= actual_key;
     5b8:	8c 83       	std	Y+4, r24	; 0x04
				digit_counter++;
     5ba:	0f 5f       	subi	r16, 0xFF	; 255
				if(digit_counter==4)
     5bc:	04 30       	cpi	r16, 0x04	; 4
     5be:	09 f0       	breq	.+2      	; 0x5c2 <__LOCK_REGION_LENGTH__+0x1c2>
     5c0:	99 c0       	rjmp	.+306    	; 0x6f4 <__LOCK_REGION_LENGTH__+0x2f4>
					systemFlags.pwEntry		= 1;
     5c2:	80 91 16 02 	lds	r24, 0x0216	; 0x800216 <systemFlags>
     5c6:	82 60       	ori	r24, 0x02	; 2
     5c8:	80 93 16 02 	sts	0x0216, r24	; 0x800216 <systemFlags>
				
				printf("*");																	//
     5cc:	8a e2       	ldi	r24, 0x2A	; 42
     5ce:	90 e0       	ldi	r25, 0x00	; 0
     5d0:	0e 94 08 0e 	call	0x1c10	; 0x1c10 <putchar>
				lcdCursorMove(&lcd_display, RIGHT);
     5d4:	61 e0       	ldi	r22, 0x01	; 1
     5d6:	85 e1       	ldi	r24, 0x15	; 21
     5d8:	91 e0       	ldi	r25, 0x01	; 1
     5da:	0a d6       	rcall	.+3092   	; 0x11f0 <lcdCursorMove>
     5dc:	02 c0       	rjmp	.+4      	; 0x5e2 <__LOCK_REGION_LENGTH__+0x1e2>
     5de:	04 30       	cpi	r16, 0x04	; 4
	while(1)
	{
		printf("Senha:");
		
		digit_counter = 0;
		while(digit_counter<4)
     5e0:	00 f3       	brcs	.-64     	; 0x5a2 <__LOCK_REGION_LENGTH__+0x1a2>
     5e2:	80 91 16 02 	lds	r24, 0x0216	; 0x800216 <systemFlags>
				lcdCursorMove(&lcd_display, RIGHT);
			}	
		}
		digit_counter = 0;
		
		while(systemFlags.pwEntry)
     5e6:	81 ff       	sbrs	r24, 1
     5e8:	78 c0       	rjmp	.+240    	; 0x6da <__LOCK_REGION_LENGTH__+0x2da>
     5ea:	00 e0       	ldi	r16, 0x00	; 0
     5ec:	85 e1       	ldi	r24, 0x15	; 21
		{
			lcdClearScreen(&lcd_display);
     5ee:	91 e0       	ldi	r25, 0x01	; 1
     5f0:	e1 d4       	rcall	.+2498   	; 0xfb4 <lcdClearScreen>
     5f2:	9f 92       	push	r9
     5f4:	8f 92       	push	r8
			printf("verificando...");
     5f6:	0e 94 f5 0d 	call	0x1bea	; 0x1bea <printf>
     5fa:	ef ef       	ldi	r30, 0xFF	; 255
     5fc:	f3 ed       	ldi	r31, 0xD3	; 211
     5fe:	20 e3       	ldi	r18, 0x30	; 48
     600:	e1 50       	subi	r30, 0x01	; 1
     602:	f0 40       	sbci	r31, 0x00	; 0
     604:	20 40       	sbci	r18, 0x00	; 0
     606:	e1 f7       	brne	.-8      	; 0x600 <__LOCK_REGION_LENGTH__+0x200>
     608:	00 c0       	rjmp	.+0      	; 0x60a <__LOCK_REGION_LENGTH__+0x20a>
     60a:	00 00       	nop
     60c:	0f 90       	pop	r0
     60e:	0f 90       	pop	r0
			_delay_ms(1000);
			
			aux1 = 0;
			while(aux1<pw_counter)													//
     610:	71 10       	cpse	r7, r1
     612:	2f c0       	rjmp	.+94     	; 0x672 <__LOCK_REGION_LENGTH__+0x272>
     614:	35 c0       	rjmp	.+106    	; 0x680 <__LOCK_REGION_LENGTH__+0x280>
     616:	9a 01       	movw	r18, r20
     618:	22 0f       	add	r18, r18
			{																		//	
				while(digit_counter<4)												//	
				{
					if(saved_passwords[aux1][digit_counter]==password[digit_counter])
     61a:	33 1f       	adc	r19, r19
     61c:	22 0f       	add	r18, r18
     61e:	33 1f       	adc	r19, r19
     620:	81 e0       	ldi	r24, 0x01	; 1
     622:	90 e0       	ldi	r25, 0x00	; 0
     624:	8c 0f       	add	r24, r28
     626:	9d 1f       	adc	r25, r29
     628:	28 0f       	add	r18, r24
     62a:	39 1f       	adc	r19, r25
     62c:	80 2f       	mov	r24, r16
     62e:	90 e0       	ldi	r25, 0x00	; 0
     630:	f9 01       	movw	r30, r18
     632:	e8 0f       	add	r30, r24
     634:	f9 1f       	adc	r31, r25
     636:	a1 e0       	ldi	r26, 0x01	; 1
     638:	b0 e0       	ldi	r27, 0x00	; 0
     63a:	ac 0f       	add	r26, r28
     63c:	bd 1f       	adc	r27, r29
     63e:	a8 0f       	add	r26, r24
     640:	b9 1f       	adc	r27, r25
     642:	64 81       	ldd	r22, Z+4	; 0x04
     644:	8c 91       	ld	r24, X
     646:	68 13       	cpse	r22, r24
     648:	01 c0       	rjmp	.+2      	; 0x64c <__LOCK_REGION_LENGTH__+0x24c>
     64a:	1f 5f       	subi	r17, 0xFF	; 255
						right_digits++;
     64c:	0f 5f       	subi	r16, 0xFF	; 255
					digit_counter++;
     64e:	04 30       	cpi	r16, 0x04	; 4
			_delay_ms(1000);
			
			aux1 = 0;
			while(aux1<pw_counter)													//
			{																		//	
				while(digit_counter<4)												//	
     650:	69 f7       	brne	.-38     	; 0x62c <__LOCK_REGION_LENGTH__+0x22c>
     652:	14 30       	cpi	r17, 0x04	; 4
				{
					if(saved_passwords[aux1][digit_counter]==password[digit_counter])
						right_digits++;
					digit_counter++;
				}
				if(right_digits==4)
     654:	39 f4       	brne	.+14     	; 0x664 <__LOCK_REGION_LENGTH__+0x264>
     656:	80 91 16 02 	lds	r24, 0x0216	; 0x800216 <systemFlags>
				{
					systemFlags.access = 1;
     65a:	88 60       	ori	r24, 0x08	; 8
					systemFlags.pwEntry = 0;
     65c:	8d 7f       	andi	r24, 0xFD	; 253
     65e:	80 93 16 02 	sts	0x0216, r24	; 0x800216 <systemFlags>
     662:	0e c0       	rjmp	.+28     	; 0x680 <__LOCK_REGION_LENGTH__+0x280>
					break;
     664:	4f 5f       	subi	r20, 0xFF	; 255
     666:	5f 4f       	sbci	r21, 0xFF	; 255
     668:	00 e0       	ldi	r16, 0x00	; 0
				}
				else
					right_digits = 0;
					
				digit_counter = 0;
     66a:	10 e0       	ldi	r17, 0x00	; 0
					systemFlags.access = 1;
					systemFlags.pwEntry = 0;
					break;
				}
				else
					right_digits = 0;
     66c:	47 15       	cp	r20, r7
			lcdClearScreen(&lcd_display);
			printf("verificando...");
			_delay_ms(1000);
			
			aux1 = 0;
			while(aux1<pw_counter)													//
     66e:	18 f0       	brcs	.+6      	; 0x676 <__LOCK_REGION_LENGTH__+0x276>
     670:	05 c0       	rjmp	.+10     	; 0x67c <__LOCK_REGION_LENGTH__+0x27c>
     672:	40 e0       	ldi	r20, 0x00	; 0
     674:	50 e0       	ldi	r21, 0x00	; 0
     676:	04 30       	cpi	r16, 0x04	; 4
			{																		//	
				while(digit_counter<4)												//	
     678:	70 f2       	brcs	.-100    	; 0x616 <__LOCK_REGION_LENGTH__+0x216>
     67a:	eb cf       	rjmp	.-42     	; 0x652 <__LOCK_REGION_LENGTH__+0x252>
     67c:	10 e0       	ldi	r17, 0x00	; 0
					systemFlags.access = 1;
					systemFlags.pwEntry = 0;
					break;
				}
				else
					right_digits = 0;
     67e:	00 e0       	ldi	r16, 0x00	; 0
					
				digit_counter = 0;
     680:	85 e1       	ldi	r24, 0x15	; 21
				aux1++;
			}
			aux1 = 0;
			lcdClearScreen(&lcd_display);
     682:	91 e0       	ldi	r25, 0x01	; 1
     684:	97 d4       	rcall	.+2350   	; 0xfb4 <lcdClearScreen>
     686:	80 91 16 02 	lds	r24, 0x0216	; 0x800216 <systemFlags>
			if(systemFlags.access)
     68a:	83 ff       	sbrs	r24, 3
     68c:	0d c0       	rjmp	.+26     	; 0x6a8 <__LOCK_REGION_LENGTH__+0x2a8>
     68e:	5f 98       	cbi	0x0b, 7	; 11
     690:	80 91 16 02 	lds	r24, 0x0216	; 0x800216 <systemFlags>
			{
				clrBit(PORTD, GREEN_LED);
				systemFlags.access = 0;
     694:	87 7f       	andi	r24, 0xF7	; 247
     696:	80 93 16 02 	sts	0x0216, r24	; 0x800216 <systemFlags>
     69a:	ff 92       	push	r15
     69c:	ef 92       	push	r14
				printf("Liberado");
     69e:	0e 94 f5 0d 	call	0x1bea	; 0x1bea <printf>
     6a2:	0f 90       	pop	r0
     6a4:	0f 90       	pop	r0
     6a6:	0b c0       	rjmp	.+22     	; 0x6be <__LOCK_REGION_LENGTH__+0x2be>
     6a8:	df 92       	push	r13
     6aa:	cf 92       	push	r12
			}
			else
			{
				printf("acesso negado");
     6ac:	0e 94 f5 0d 	call	0x1bea	; 0x1bea <printf>
     6b0:	80 91 16 02 	lds	r24, 0x0216	; 0x800216 <systemFlags>
				systemFlags.pwEntry = 0;
     6b4:	8d 7f       	andi	r24, 0xFD	; 253
     6b6:	80 93 16 02 	sts	0x0216, r24	; 0x800216 <systemFlags>
     6ba:	0f 90       	pop	r0
     6bc:	0f 90       	pop	r0
     6be:	9f ef       	ldi	r25, 0xFF	; 255
     6c0:	eb e7       	ldi	r30, 0x7B	; 123
     6c2:	f2 e9       	ldi	r31, 0x92	; 146
     6c4:	91 50       	subi	r25, 0x01	; 1
     6c6:	e0 40       	sbci	r30, 0x00	; 0
     6c8:	f0 40       	sbci	r31, 0x00	; 0
     6ca:	e1 f7       	brne	.-8      	; 0x6c4 <__LOCK_REGION_LENGTH__+0x2c4>
     6cc:	00 c0       	rjmp	.+0      	; 0x6ce <__LOCK_REGION_LENGTH__+0x2ce>
     6ce:	00 00       	nop
			}
				
			_delay_ms(3000);
			setBit(PORTD, GREEN_LED);
     6d0:	5f 9a       	sbi	0x0b, 7	; 11
				lcdCursorMove(&lcd_display, RIGHT);
			}	
		}
		digit_counter = 0;
		
		while(systemFlags.pwEntry)
     6d2:	80 91 16 02 	lds	r24, 0x0216	; 0x800216 <systemFlags>
     6d6:	81 fd       	sbrc	r24, 1
     6d8:	89 cf       	rjmp	.-238    	; 0x5ec <__LOCK_REGION_LENGTH__+0x1ec>
     6da:	2f ef       	ldi	r18, 0xFF	; 255
     6dc:	83 ed       	ldi	r24, 0xD3	; 211
     6de:	90 e3       	ldi	r25, 0x30	; 48
     6e0:	21 50       	subi	r18, 0x01	; 1
     6e2:	80 40       	sbci	r24, 0x00	; 0
     6e4:	90 40       	sbci	r25, 0x00	; 0
     6e6:	e1 f7       	brne	.-8      	; 0x6e0 <__LOCK_REGION_LENGTH__+0x2e0>
     6e8:	00 c0       	rjmp	.+0      	; 0x6ea <__LOCK_REGION_LENGTH__+0x2ea>
     6ea:	00 00       	nop
			_delay_ms(3000);
			setBit(PORTD, GREEN_LED);
		}
		 
		_delay_ms(1000);
		lcdClearScreen(&lcd_display);
     6ec:	85 e1       	ldi	r24, 0x15	; 21
     6ee:	91 e0       	ldi	r25, 0x01	; 1
     6f0:	61 d4       	rcall	.+2242   	; 0xfb4 <lcdClearScreen>
     6f2:	50 cf       	rjmp	.-352    	; 0x594 <__LOCK_REGION_LENGTH__+0x194>
	}
     6f4:	8a e2       	ldi	r24, 0x2A	; 42
				password[3]				= actual_key;
				digit_counter++;
				if(digit_counter==4)
					systemFlags.pwEntry		= 1;
				
				printf("*");																	//
     6f6:	90 e0       	ldi	r25, 0x00	; 0
     6f8:	0e 94 08 0e 	call	0x1c10	; 0x1c10 <putchar>
     6fc:	61 e0       	ldi	r22, 0x01	; 1
				lcdCursorMove(&lcd_display, RIGHT);
     6fe:	85 e1       	ldi	r24, 0x15	; 21
     700:	91 e0       	ldi	r25, 0x01	; 1
     702:	76 d5       	rcall	.+2796   	; 0x11f0 <lcdCursorMove>
     704:	4e cf       	rjmp	.-356    	; 0x5a2 <__LOCK_REGION_LENGTH__+0x1a2>

00000706 <eepromSetOperationMode>:
     706:	2f b3       	in	r18, 0x1f	; 31
     708:	30 e1       	ldi	r19, 0x10	; 16
 * Deactivates the EEPROM ready interrupt
 * -------------------------------------------------------------------------- */

void eepromReadyDeactivateInterrupt(void)
{
	clrBit(EECR, EERIE);
     70a:	83 9f       	mul	r24, r19
     70c:	c0 01       	movw	r24, r0
     70e:	11 24       	eor	r1, r1
     710:	2f 7c       	andi	r18, 0xCF	; 207
     712:	82 2b       	or	r24, r18
     714:	8f bb       	out	0x1f, r24	; 31
     716:	08 95       	ret

00000718 <eepromWrite>:
 * Writes a byte in the specified address in the EEPROM
 * -------------------------------------------------------------------------- */

void eepromWrite(uint16 address, uint8 data)
{
	waitUntilBitIsClear(EECR, EEPE);
     718:	f9 99       	sbic	0x1f, 1	; 31
     71a:	fe cf       	rjmp	.-4      	; 0x718 <eepromWrite>
	waitUntilBitIsClear(SPMEN, SPMCSR);
     71c:	27 b7       	in	r18, 0x37	; 55
	EEAR = (address & EEPROM_ADDRESS_MASK);
     71e:	93 70       	andi	r25, 0x03	; 3
     720:	92 bd       	out	0x22, r25	; 34
     722:	81 bd       	out	0x21, r24	; 33
	EEDR = data;
     724:	60 bd       	out	0x20, r22	; 32
	ATOMIC_BLOCK(ATOMIC_RESTORESTATE){
     726:	8f b7       	in	r24, 0x3f	; 63
    return 1;
}

static __inline__ uint8_t __iCliRetVal(void)
{
    cli();
     728:	f8 94       	cli
		setBit(EECR, EEMPE);
     72a:	fa 9a       	sbi	0x1f, 2	; 31
		setBit(EECR, EEPE);
     72c:	f9 9a       	sbi	0x1f, 1	; 31
    (void)__s;
}

static __inline__ void __iRestore(const  uint8_t *__s)
{
    SREG = *__s;
     72e:	8f bf       	out	0x3f, r24	; 63
    __asm__ volatile ("" ::: "memory");
     730:	08 95       	ret

00000732 <eepromRead>:
 * Reads a byte from the specified address in the EEPROM
 * -------------------------------------------------------------------------- */

uint8 eepromRead(uint16 address)
{
	waitUntilBitIsClear(EECR, EEPE);
     732:	f9 99       	sbic	0x1f, 1	; 31
     734:	fe cf       	rjmp	.-4      	; 0x732 <eepromRead>
	EEAR = (address & EEPROM_ADDRESS_MASK);
     736:	93 70       	andi	r25, 0x03	; 3
     738:	92 bd       	out	0x22, r25	; 34
     73a:	81 bd       	out	0x21, r24	; 33
	setBit(EECR, EERE);
     73c:	f8 9a       	sbi	0x1f, 0	; 31
	return EEDR;
     73e:	80 b5       	in	r24, 0x20	; 32
}
     740:	08 95       	ret

00000742 <keypadResetConfiguration>:
 * Arguments:	keypad		Pointer to the keypad struct
 * Returns:		KEYPAD_OK
 * -------------------------------------------------------------------------- */

keypadResult_t keypadResetConfiguration(volatile keypadConfiguration_t * keypad)
{
     742:	cf 93       	push	r28
     744:	df 93       	push	r29
     746:	ec 01       	movw	r28, r24
	keypad->linesDDR = NULL;
     748:	19 82       	std	Y+1, r1	; 0x01
     74a:	18 82       	st	Y, r1
	keypad->linesPORT = NULL;
     74c:	1b 82       	std	Y+3, r1	; 0x03
     74e:	1a 82       	std	Y+2, r1	; 0x02
	keypad->linesPIN = NULL;
     750:	1d 82       	std	Y+5, r1	; 0x05
     752:	1c 82       	std	Y+4, r1	; 0x04
	keypad->columnsDDR = NULL;
     754:	1f 82       	std	Y+7, r1	; 0x07
     756:	1e 82       	std	Y+6, r1	; 0x06
	keypad->columnsPORT = NULL;
     758:	19 86       	std	Y+9, r1	; 0x09
     75a:	18 86       	std	Y+8, r1	; 0x08
	free(keypad->keys);
     75c:	8a 85       	ldd	r24, Y+10	; 0x0a
     75e:	9b 85       	ldd	r25, Y+11	; 0x0b
     760:	0e 94 a4 0c 	call	0x1948	; 0x1948 <free>
	keypad->keys = NULL;
     764:	1b 86       	std	Y+11, r1	; 0x0b
     766:	1a 86       	std	Y+10, r1	; 0x0a
	keypad->linesLSB = 0;
     768:	8c 85       	ldd	r24, Y+12	; 0x0c
     76a:	88 7f       	andi	r24, 0xF8	; 248
     76c:	8c 87       	std	Y+12, r24	; 0x0c
	keypad->columnsLSB = 0;
     76e:	8c 85       	ldd	r24, Y+12	; 0x0c
     770:	87 7c       	andi	r24, 0xC7	; 199
     772:	8c 87       	std	Y+12, r24	; 0x0c
	keypad->type = KEYPAD_TYPE_UNDEFINED;
     774:	8c 85       	ldd	r24, Y+12	; 0x0c
     776:	8f 73       	andi	r24, 0x3F	; 63
     778:	8c 87       	std	Y+12, r24	; 0x0c
	keypad->lines = 0;
     77a:	8d 85       	ldd	r24, Y+13	; 0x0d
     77c:	88 7f       	andi	r24, 0xF8	; 248
     77e:	8d 87       	std	Y+13, r24	; 0x0d
	keypad->columns = 0;
     780:	8d 85       	ldd	r24, Y+13	; 0x0d
     782:	87 7c       	andi	r24, 0xC7	; 199
     784:	8d 87       	std	Y+13, r24	; 0x0d
	keypad->portConfigured = FALSE;
     786:	8d 85       	ldd	r24, Y+13	; 0x0d
     788:	8f 7b       	andi	r24, 0xBF	; 191
     78a:	8d 87       	std	Y+13, r24	; 0x0d
	keypad->keysConfigured = FALSE;
     78c:	8d 85       	ldd	r24, Y+13	; 0x0d
     78e:	8f 77       	andi	r24, 0x7F	; 127
     790:	8d 87       	std	Y+13, r24	; 0x0d
	keypad->initialized = FALSE;
     792:	8e 85       	ldd	r24, Y+14	; 0x0e
     794:	8e 7f       	andi	r24, 0xFE	; 254
     796:	8e 87       	std	Y+14, r24	; 0x0e
	keypad->debounceTime = 0;
     798:	8e 85       	ldd	r24, Y+14	; 0x0e
     79a:	81 70       	andi	r24, 0x01	; 1
     79c:	8e 87       	std	Y+14, r24	; 0x0e
	
	return KEYPAD_OK;
}
     79e:	81 e0       	ldi	r24, 0x01	; 1
     7a0:	df 91       	pop	r29
     7a2:	cf 91       	pop	r28
     7a4:	08 95       	ret

000007a6 <keypadSetPort>:
 *				columnsLSB		Position of the first bit of the register
 * Returns:		KEYPAD_OK
 * -------------------------------------------------------------------------- */

keypadResult_t keypadSetPort(volatile keypadConfiguration_t * keypad, volatile uint8 * linesDDR, volatile uint8 * linesPORT, volatile uint8 * linesPIN, uint8 linesLSB, volatile uint8 * columnsDDR, volatile uint8 * columnsPORT, uint8 columnsLSB)
{
     7a6:	af 92       	push	r10
     7a8:	cf 92       	push	r12
     7aa:	df 92       	push	r13
     7ac:	ef 92       	push	r14
     7ae:	ff 92       	push	r15
     7b0:	0f 93       	push	r16
     7b2:	fc 01       	movw	r30, r24
	keypad->linesDDR = linesDDR;
     7b4:	71 83       	std	Z+1, r23	; 0x01
     7b6:	60 83       	st	Z, r22
	keypad->linesPORT = linesPORT;
     7b8:	53 83       	std	Z+3, r21	; 0x03
     7ba:	42 83       	std	Z+2, r20	; 0x02
	keypad->linesPIN = linesPIN;
     7bc:	35 83       	std	Z+5, r19	; 0x05
     7be:	24 83       	std	Z+4, r18	; 0x04
	keypad->linesLSB = linesLSB;
     7c0:	07 70       	andi	r16, 0x07	; 7
     7c2:	94 85       	ldd	r25, Z+12	; 0x0c
     7c4:	98 7f       	andi	r25, 0xF8	; 248
     7c6:	09 2b       	or	r16, r25
     7c8:	04 87       	std	Z+12, r16	; 0x0c
	keypad->columnsDDR = columnsDDR;
     7ca:	f7 82       	std	Z+7, r15	; 0x07
     7cc:	e6 82       	std	Z+6, r14	; 0x06
	keypad->columnsPORT = columnsPORT;
     7ce:	d1 86       	std	Z+9, r13	; 0x09
     7d0:	c0 86       	std	Z+8, r12	; 0x08
	keypad->columnsLSB = columnsLSB;
     7d2:	8a 2d       	mov	r24, r10
     7d4:	87 70       	andi	r24, 0x07	; 7
     7d6:	88 0f       	add	r24, r24
     7d8:	88 0f       	add	r24, r24
     7da:	88 0f       	add	r24, r24
     7dc:	94 85       	ldd	r25, Z+12	; 0x0c
     7de:	97 7c       	andi	r25, 0xC7	; 199
     7e0:	a9 2e       	mov	r10, r25
     7e2:	a8 2a       	or	r10, r24
     7e4:	a4 86       	std	Z+12, r10	; 0x0c
	keypad->portConfigured = TRUE;
     7e6:	85 85       	ldd	r24, Z+13	; 0x0d
     7e8:	80 64       	ori	r24, 0x40	; 64
     7ea:	85 87       	std	Z+13, r24	; 0x0d

	return KEYPAD_OK;
}
     7ec:	81 e0       	ldi	r24, 0x01	; 1
     7ee:	0f 91       	pop	r16
     7f0:	ff 90       	pop	r15
     7f2:	ef 90       	pop	r14
     7f4:	df 90       	pop	r13
     7f6:	cf 90       	pop	r12
     7f8:	af 90       	pop	r10
     7fa:	08 95       	ret

000007fc <keypadSetKeys>:
 *				KEYPAD_TYPE_NOT_ALLOWED
 *				KEYPAD_MEMORY_ALLOCATION_ERROR
 * -------------------------------------------------------------------------- */

keypadResult_t keypadSetKeys(volatile keypadConfiguration_t * keypad, keypadType_t type, ...)
{
     7fc:	cf 92       	push	r12
     7fe:	df 92       	push	r13
     800:	ef 92       	push	r14
     802:	ff 92       	push	r15
     804:	0f 93       	push	r16
     806:	1f 93       	push	r17
     808:	cf 93       	push	r28
     80a:	df 93       	push	r29
     80c:	cd b7       	in	r28, 0x3d	; 61
     80e:	de b7       	in	r29, 0x3e	; 62
     810:	0b 85       	ldd	r16, Y+11	; 0x0b
     812:	1c 85       	ldd	r17, Y+12	; 0x0c
     814:	8d 85       	ldd	r24, Y+13	; 0x0d
	uint8 i;
	uint8 j;
	va_list args;

	// Keypad type
	switch(type){
     816:	82 30       	cpi	r24, 0x02	; 2
     818:	99 f0       	breq	.+38     	; 0x840 <keypadSetKeys+0x44>
     81a:	83 30       	cpi	r24, 0x03	; 3
     81c:	f9 f0       	breq	.+62     	; 0x85c <keypadSetKeys+0x60>
     81e:	81 30       	cpi	r24, 0x01	; 1
     820:	09 f0       	breq	.+2      	; 0x824 <keypadSetKeys+0x28>
     822:	8c c0       	rjmp	.+280    	; 0x93c <__stack+0x3d>
	case KEYPAD_4X4:
		keypad->type = KEYPAD_4X4;
     824:	f8 01       	movw	r30, r16
     826:	84 85       	ldd	r24, Z+12	; 0x0c
     828:	8f 73       	andi	r24, 0x3F	; 63
     82a:	80 64       	ori	r24, 0x40	; 64
     82c:	84 87       	std	Z+12, r24	; 0x0c
		keypad->lines = 4;
     82e:	85 85       	ldd	r24, Z+13	; 0x0d
     830:	88 7f       	andi	r24, 0xF8	; 248
     832:	84 60       	ori	r24, 0x04	; 4
     834:	85 87       	std	Z+13, r24	; 0x0d
		keypad->columns = 4;
     836:	85 85       	ldd	r24, Z+13	; 0x0d
     838:	87 7c       	andi	r24, 0xC7	; 199
     83a:	80 62       	ori	r24, 0x20	; 32
     83c:	85 87       	std	Z+13, r24	; 0x0d
		break;
     83e:	1a c0       	rjmp	.+52     	; 0x874 <keypadSetKeys+0x78>
	case KEYPAD_4X3:
		keypad->type = KEYPAD_4X3;
     840:	f8 01       	movw	r30, r16
     842:	84 85       	ldd	r24, Z+12	; 0x0c
     844:	8f 73       	andi	r24, 0x3F	; 63
     846:	80 68       	ori	r24, 0x80	; 128
     848:	84 87       	std	Z+12, r24	; 0x0c
		keypad->lines = 4;
     84a:	85 85       	ldd	r24, Z+13	; 0x0d
     84c:	88 7f       	andi	r24, 0xF8	; 248
     84e:	84 60       	ori	r24, 0x04	; 4
     850:	85 87       	std	Z+13, r24	; 0x0d
		keypad->columns = 3;
     852:	85 85       	ldd	r24, Z+13	; 0x0d
     854:	87 7c       	andi	r24, 0xC7	; 199
     856:	88 61       	ori	r24, 0x18	; 24
     858:	85 87       	std	Z+13, r24	; 0x0d
		break;
     85a:	0c c0       	rjmp	.+24     	; 0x874 <keypadSetKeys+0x78>
	case KEYPAD_5X3:
		keypad->type = KEYPAD_5X3;
     85c:	f8 01       	movw	r30, r16
     85e:	84 85       	ldd	r24, Z+12	; 0x0c
     860:	80 6c       	ori	r24, 0xC0	; 192
     862:	84 87       	std	Z+12, r24	; 0x0c
		keypad->lines = 5;
     864:	85 85       	ldd	r24, Z+13	; 0x0d
     866:	88 7f       	andi	r24, 0xF8	; 248
     868:	85 60       	ori	r24, 0x05	; 5
     86a:	85 87       	std	Z+13, r24	; 0x0d
		keypad->columns = 3;
     86c:	85 85       	ldd	r24, Z+13	; 0x0d
     86e:	87 7c       	andi	r24, 0xC7	; 199
     870:	88 61       	ori	r24, 0x18	; 24
     872:	85 87       	std	Z+13, r24	; 0x0d
	default:
		return KEYPAD_TYPE_NOT_ALLOWED;
	}

	// Memory allocation
	keypad->keys = (uint8 *)realloc(keypad->keys, keypad->lines * keypad->columns);
     874:	f8 01       	movw	r30, r16
     876:	65 85       	ldd	r22, Z+13	; 0x0d
     878:	96 2f       	mov	r25, r22
     87a:	97 70       	andi	r25, 0x07	; 7
     87c:	65 85       	ldd	r22, Z+13	; 0x0d
     87e:	66 95       	lsr	r22
     880:	66 95       	lsr	r22
     882:	66 95       	lsr	r22
     884:	67 70       	andi	r22, 0x07	; 7
     886:	22 85       	ldd	r18, Z+10	; 0x0a
     888:	33 85       	ldd	r19, Z+11	; 0x0b
     88a:	96 9f       	mul	r25, r22
     88c:	b0 01       	movw	r22, r0
     88e:	11 24       	eor	r1, r1
     890:	c9 01       	movw	r24, r18
     892:	0e 94 2d 0d 	call	0x1a5a	; 0x1a5a <realloc>
     896:	f8 01       	movw	r30, r16
     898:	93 87       	std	Z+11, r25	; 0x0b
     89a:	82 87       	std	Z+10, r24	; 0x0a
	if(keypad->keys == NULL)
     89c:	82 85       	ldd	r24, Z+10	; 0x0a
     89e:	93 85       	ldd	r25, Z+11	; 0x0b
     8a0:	89 2b       	or	r24, r25
     8a2:	09 f4       	brne	.+2      	; 0x8a6 <keypadSetKeys+0xaa>
     8a4:	4d c0       	rjmp	.+154    	; 0x940 <__stack+0x41>
		return KEYPAD_MEMORY_ALLOCATION_ERROR;

	// Keypad keys
	va_start(args, type);
	for(i = 0;i < keypad->lines;i++){
     8a6:	85 85       	ldd	r24, Z+13	; 0x0d
     8a8:	87 70       	andi	r24, 0x07	; 7
     8aa:	09 f4       	brne	.+2      	; 0x8ae <keypadSetKeys+0xb2>
     8ac:	41 c0       	rjmp	.+130    	; 0x930 <__stack+0x31>
     8ae:	ae 01       	movw	r20, r28
     8b0:	42 5f       	subi	r20, 0xF2	; 242
     8b2:	5f 4f       	sbci	r21, 0xFF	; 255
     8b4:	60 e0       	ldi	r22, 0x00	; 0
     8b6:	70 e0       	ldi	r23, 0x00	; 0
     8b8:	e1 2c       	mov	r14, r1
		for(j = 0;j < keypad->columns;j++){
     8ba:	c1 2c       	mov	r12, r1
     8bc:	d1 2c       	mov	r13, r1
     8be:	30 c0       	rjmp	.+96     	; 0x920 <__stack+0x21>
     8c0:	ac 2d       	mov	r26, r12
     8c2:	bd 2d       	mov	r27, r13
     8c4:	f1 2c       	mov	r15, r1
			keypad->keys[(keypad->lines * i) + j] = (uint8)va_arg(args, int16);
     8c6:	f8 01       	movw	r30, r16
     8c8:	22 85       	ldd	r18, Z+10	; 0x0a
     8ca:	33 85       	ldd	r19, Z+11	; 0x0b
     8cc:	85 85       	ldd	r24, Z+13	; 0x0d
     8ce:	f8 2f       	mov	r31, r24
     8d0:	f7 70       	andi	r31, 0x07	; 7
     8d2:	4e 5f       	subi	r20, 0xFE	; 254
     8d4:	5f 4f       	sbci	r21, 0xFF	; 255
     8d6:	f6 9f       	mul	r31, r22
     8d8:	c0 01       	movw	r24, r0
     8da:	f7 9f       	mul	r31, r23
     8dc:	90 0d       	add	r25, r0
     8de:	11 24       	eor	r1, r1
     8e0:	f9 01       	movw	r30, r18
     8e2:	ea 0f       	add	r30, r26
     8e4:	fb 1f       	adc	r31, r27
     8e6:	e8 0f       	add	r30, r24
     8e8:	f9 1f       	adc	r31, r25
     8ea:	da 01       	movw	r26, r20
     8ec:	12 97       	sbiw	r26, 0x02	; 2
     8ee:	8c 91       	ld	r24, X
     8f0:	80 83       	st	Z, r24
		return KEYPAD_MEMORY_ALLOCATION_ERROR;

	// Keypad keys
	va_start(args, type);
	for(i = 0;i < keypad->lines;i++){
		for(j = 0;j < keypad->columns;j++){
     8f2:	f3 94       	inc	r15
     8f4:	af 2d       	mov	r26, r15
     8f6:	b0 e0       	ldi	r27, 0x00	; 0
     8f8:	f8 01       	movw	r30, r16
     8fa:	85 85       	ldd	r24, Z+13	; 0x0d
     8fc:	86 95       	lsr	r24
     8fe:	86 95       	lsr	r24
     900:	86 95       	lsr	r24
     902:	87 70       	andi	r24, 0x07	; 7
     904:	90 e0       	ldi	r25, 0x00	; 0
     906:	a8 17       	cp	r26, r24
     908:	b9 07       	cpc	r27, r25
     90a:	ec f2       	brlt	.-70     	; 0x8c6 <keypadSetKeys+0xca>
	if(keypad->keys == NULL)
		return KEYPAD_MEMORY_ALLOCATION_ERROR;

	// Keypad keys
	va_start(args, type);
	for(i = 0;i < keypad->lines;i++){
     90c:	e3 94       	inc	r14
     90e:	6e 2d       	mov	r22, r14
     910:	70 e0       	ldi	r23, 0x00	; 0
     912:	f8 01       	movw	r30, r16
     914:	85 85       	ldd	r24, Z+13	; 0x0d
     916:	87 70       	andi	r24, 0x07	; 7
     918:	90 e0       	ldi	r25, 0x00	; 0
     91a:	68 17       	cp	r22, r24
     91c:	79 07       	cpc	r23, r25
     91e:	44 f4       	brge	.+16     	; 0x930 <__stack+0x31>
		for(j = 0;j < keypad->columns;j++){
     920:	f8 01       	movw	r30, r16
     922:	85 85       	ldd	r24, Z+13	; 0x0d
     924:	86 95       	lsr	r24
     926:	86 95       	lsr	r24
     928:	86 95       	lsr	r24
     92a:	87 70       	andi	r24, 0x07	; 7
     92c:	49 f6       	brne	.-110    	; 0x8c0 <keypadSetKeys+0xc4>
     92e:	ee cf       	rjmp	.-36     	; 0x90c <__stack+0xd>
			keypad->keys[(keypad->lines * i) + j] = (uint8)va_arg(args, int16);
		}
	}
	va_end(args);
	keypad->keysConfigured = TRUE;
     930:	f8 01       	movw	r30, r16
     932:	85 85       	ldd	r24, Z+13	; 0x0d
     934:	80 68       	ori	r24, 0x80	; 128
     936:	85 87       	std	Z+13, r24	; 0x0d

	return KEYPAD_OK;
     938:	81 e0       	ldi	r24, 0x01	; 1
     93a:	03 c0       	rjmp	.+6      	; 0x942 <__stack+0x43>
		keypad->type = KEYPAD_5X3;
		keypad->lines = 5;
		keypad->columns = 3;
		break;
	default:
		return KEYPAD_TYPE_NOT_ALLOWED;
     93c:	82 e0       	ldi	r24, 0x02	; 2
     93e:	01 c0       	rjmp	.+2      	; 0x942 <__stack+0x43>
	}

	// Memory allocation
	keypad->keys = (uint8 *)realloc(keypad->keys, keypad->lines * keypad->columns);
	if(keypad->keys == NULL)
		return KEYPAD_MEMORY_ALLOCATION_ERROR;
     940:	83 e0       	ldi	r24, 0x03	; 3
	}
	va_end(args);
	keypad->keysConfigured = TRUE;

	return KEYPAD_OK;
}
     942:	df 91       	pop	r29
     944:	cf 91       	pop	r28
     946:	1f 91       	pop	r17
     948:	0f 91       	pop	r16
     94a:	ff 90       	pop	r15
     94c:	ef 90       	pop	r14
     94e:	df 90       	pop	r13
     950:	cf 90       	pop	r12
     952:	08 95       	ret

00000954 <keypadInit>:
 *				KEYPAD_TYPE_NOT_ALLOWED
 * -------------------------------------------------------------------------- */

keypadResult_t keypadInit(volatile keypadConfiguration_t * keypad, uint8 debounceTime)
{
	if(keypad->portConfigured == FALSE)
     954:	dc 01       	movw	r26, r24
     956:	1d 96       	adiw	r26, 0x0d	; 13
     958:	2c 91       	ld	r18, X
     95a:	1d 97       	sbiw	r26, 0x0d	; 13
     95c:	26 ff       	sbrs	r18, 6
     95e:	12 c1       	rjmp	.+548    	; 0xb84 <keypadInit+0x230>
		return KEYPAD_PORTS_NOT_CONFIGURED;

	if(keypad->keysConfigured == FALSE)
     960:	1d 96       	adiw	r26, 0x0d	; 13
     962:	2c 91       	ld	r18, X
     964:	1d 97       	sbiw	r26, 0x0d	; 13
     966:	22 23       	and	r18, r18
     968:	0c f0       	brlt	.+2      	; 0x96c <keypadInit+0x18>
     96a:	0e c1       	rjmp	.+540    	; 0xb88 <keypadInit+0x234>
		return KEYPAD_KEYS_NOT_CONFIGURED;

	if(keypad->type == KEYPAD_TYPE_UNDEFINED)
     96c:	1c 96       	adiw	r26, 0x0c	; 12
     96e:	2c 91       	ld	r18, X
     970:	1c 97       	sbiw	r26, 0x0c	; 12
     972:	22 95       	swap	r18
     974:	26 95       	lsr	r18
     976:	26 95       	lsr	r18
     978:	23 70       	andi	r18, 0x03	; 3
     97a:	09 f4       	brne	.+2      	; 0x97e <keypadInit+0x2a>
     97c:	07 c1       	rjmp	.+526    	; 0xb8c <keypadInit+0x238>
		return KEYPAD_TYPE_NOT_ALLOWED;

	switch(keypad->type){
     97e:	1c 96       	adiw	r26, 0x0c	; 12
     980:	2c 91       	ld	r18, X
     982:	1c 97       	sbiw	r26, 0x0c	; 12
     984:	22 95       	swap	r18
     986:	26 95       	lsr	r18
     988:	26 95       	lsr	r18
     98a:	23 70       	andi	r18, 0x03	; 3
     98c:	22 30       	cpi	r18, 0x02	; 2
     98e:	09 f4       	brne	.+2      	; 0x992 <keypadInit+0x3e>
     990:	4e c0       	rjmp	.+156    	; 0xa2e <keypadInit+0xda>
     992:	08 f0       	brcs	.+2      	; 0x996 <keypadInit+0x42>
     994:	99 c0       	rjmp	.+306    	; 0xac8 <keypadInit+0x174>
     996:	21 30       	cpi	r18, 0x01	; 1
     998:	09 f0       	breq	.+2      	; 0x99c <keypadInit+0x48>
     99a:	fa c0       	rjmp	.+500    	; 0xb90 <keypadInit+0x23c>
	case KEYPAD_4X4:
		clrMask(*(keypad->linesDDR), 0x0F, keypad->linesLSB);
     99c:	1c 96       	adiw	r26, 0x0c	; 12
     99e:	5c 91       	ld	r21, X
     9a0:	1c 97       	sbiw	r26, 0x0c	; 12
     9a2:	57 70       	andi	r21, 0x07	; 7
     9a4:	ed 91       	ld	r30, X+
     9a6:	fc 91       	ld	r31, X
     9a8:	70 81       	ld	r23, Z
     9aa:	2f e0       	ldi	r18, 0x0F	; 15
     9ac:	30 e0       	ldi	r19, 0x00	; 0
     9ae:	d9 01       	movw	r26, r18
     9b0:	02 c0       	rjmp	.+4      	; 0x9b6 <keypadInit+0x62>
     9b2:	aa 0f       	add	r26, r26
     9b4:	bb 1f       	adc	r27, r27
     9b6:	5a 95       	dec	r21
     9b8:	e2 f7       	brpl	.-8      	; 0x9b2 <keypadInit+0x5e>
     9ba:	ad 01       	movw	r20, r26
     9bc:	40 95       	com	r20
     9be:	50 95       	com	r21
     9c0:	47 23       	and	r20, r23
     9c2:	40 83       	st	Z, r20
		setMask(*(keypad->linesPORT), 0x0F, keypad->linesLSB);
     9c4:	fc 01       	movw	r30, r24
     9c6:	54 85       	ldd	r21, Z+12	; 0x0c
     9c8:	57 70       	andi	r21, 0x07	; 7
     9ca:	02 80       	ldd	r0, Z+2	; 0x02
     9cc:	f3 81       	ldd	r31, Z+3	; 0x03
     9ce:	e0 2d       	mov	r30, r0
     9d0:	70 81       	ld	r23, Z
     9d2:	d9 01       	movw	r26, r18
     9d4:	02 c0       	rjmp	.+4      	; 0x9da <keypadInit+0x86>
     9d6:	aa 0f       	add	r26, r26
     9d8:	bb 1f       	adc	r27, r27
     9da:	5a 95       	dec	r21
     9dc:	e2 f7       	brpl	.-8      	; 0x9d6 <keypadInit+0x82>
     9de:	ad 01       	movw	r20, r26
     9e0:	47 2b       	or	r20, r23
     9e2:	40 83       	st	Z, r20
		setMask(*(keypad->columnsDDR), 0x0F, keypad->columnsLSB);
     9e4:	fc 01       	movw	r30, r24
     9e6:	44 85       	ldd	r20, Z+12	; 0x0c
     9e8:	46 95       	lsr	r20
     9ea:	46 95       	lsr	r20
     9ec:	46 95       	lsr	r20
     9ee:	47 70       	andi	r20, 0x07	; 7
     9f0:	06 80       	ldd	r0, Z+6	; 0x06
     9f2:	f7 81       	ldd	r31, Z+7	; 0x07
     9f4:	e0 2d       	mov	r30, r0
     9f6:	70 81       	ld	r23, Z
     9f8:	d9 01       	movw	r26, r18
     9fa:	02 c0       	rjmp	.+4      	; 0xa00 <keypadInit+0xac>
     9fc:	aa 0f       	add	r26, r26
     9fe:	bb 1f       	adc	r27, r27
     a00:	4a 95       	dec	r20
     a02:	e2 f7       	brpl	.-8      	; 0x9fc <keypadInit+0xa8>
     a04:	ad 01       	movw	r20, r26
     a06:	47 2b       	or	r20, r23
     a08:	40 83       	st	Z, r20
		setMask(*(keypad->columnsPORT), 0x0F, keypad->columnsLSB);
     a0a:	fc 01       	movw	r30, r24
     a0c:	44 85       	ldd	r20, Z+12	; 0x0c
     a0e:	46 95       	lsr	r20
     a10:	46 95       	lsr	r20
     a12:	46 95       	lsr	r20
     a14:	47 70       	andi	r20, 0x07	; 7
     a16:	00 84       	ldd	r0, Z+8	; 0x08
     a18:	f1 85       	ldd	r31, Z+9	; 0x09
     a1a:	e0 2d       	mov	r30, r0
     a1c:	50 81       	ld	r21, Z
     a1e:	02 c0       	rjmp	.+4      	; 0xa24 <keypadInit+0xd0>
     a20:	22 0f       	add	r18, r18
     a22:	33 1f       	adc	r19, r19
     a24:	4a 95       	dec	r20
     a26:	e2 f7       	brpl	.-8      	; 0xa20 <keypadInit+0xcc>
     a28:	25 2b       	or	r18, r21
     a2a:	20 83       	st	Z, r18
		break;
     a2c:	99 c0       	rjmp	.+306    	; 0xb60 <keypadInit+0x20c>
	case KEYPAD_4X3:
		clrMask(*(keypad->linesDDR), 0x0F, keypad->linesLSB);
     a2e:	dc 01       	movw	r26, r24
     a30:	1c 96       	adiw	r26, 0x0c	; 12
     a32:	5c 91       	ld	r21, X
     a34:	1c 97       	sbiw	r26, 0x0c	; 12
     a36:	57 70       	andi	r21, 0x07	; 7
     a38:	ed 91       	ld	r30, X+
     a3a:	fc 91       	ld	r31, X
     a3c:	70 81       	ld	r23, Z
     a3e:	2f e0       	ldi	r18, 0x0F	; 15
     a40:	30 e0       	ldi	r19, 0x00	; 0
     a42:	d9 01       	movw	r26, r18
     a44:	02 c0       	rjmp	.+4      	; 0xa4a <keypadInit+0xf6>
     a46:	aa 0f       	add	r26, r26
     a48:	bb 1f       	adc	r27, r27
     a4a:	5a 95       	dec	r21
     a4c:	e2 f7       	brpl	.-8      	; 0xa46 <keypadInit+0xf2>
     a4e:	ad 01       	movw	r20, r26
     a50:	40 95       	com	r20
     a52:	50 95       	com	r21
     a54:	47 23       	and	r20, r23
     a56:	40 83       	st	Z, r20
		setMask(*(keypad->linesPORT), 0x0F, keypad->linesLSB);
     a58:	fc 01       	movw	r30, r24
     a5a:	44 85       	ldd	r20, Z+12	; 0x0c
     a5c:	47 70       	andi	r20, 0x07	; 7
     a5e:	02 80       	ldd	r0, Z+2	; 0x02
     a60:	f3 81       	ldd	r31, Z+3	; 0x03
     a62:	e0 2d       	mov	r30, r0
     a64:	50 81       	ld	r21, Z
     a66:	02 c0       	rjmp	.+4      	; 0xa6c <keypadInit+0x118>
     a68:	22 0f       	add	r18, r18
     a6a:	33 1f       	adc	r19, r19
     a6c:	4a 95       	dec	r20
     a6e:	e2 f7       	brpl	.-8      	; 0xa68 <keypadInit+0x114>
     a70:	25 2b       	or	r18, r21
     a72:	20 83       	st	Z, r18
		setMask(*(keypad->columnsDDR), 0x07, keypad->columnsLSB);
     a74:	dc 01       	movw	r26, r24
     a76:	1c 96       	adiw	r26, 0x0c	; 12
     a78:	4c 91       	ld	r20, X
     a7a:	1c 97       	sbiw	r26, 0x0c	; 12
     a7c:	46 95       	lsr	r20
     a7e:	46 95       	lsr	r20
     a80:	46 95       	lsr	r20
     a82:	47 70       	andi	r20, 0x07	; 7
     a84:	16 96       	adiw	r26, 0x06	; 6
     a86:	ed 91       	ld	r30, X+
     a88:	fc 91       	ld	r31, X
     a8a:	17 97       	sbiw	r26, 0x07	; 7
     a8c:	70 81       	ld	r23, Z
     a8e:	27 e0       	ldi	r18, 0x07	; 7
     a90:	30 e0       	ldi	r19, 0x00	; 0
     a92:	d9 01       	movw	r26, r18
     a94:	02 c0       	rjmp	.+4      	; 0xa9a <keypadInit+0x146>
     a96:	aa 0f       	add	r26, r26
     a98:	bb 1f       	adc	r27, r27
     a9a:	4a 95       	dec	r20
     a9c:	e2 f7       	brpl	.-8      	; 0xa96 <keypadInit+0x142>
     a9e:	ad 01       	movw	r20, r26
     aa0:	47 2b       	or	r20, r23
     aa2:	40 83       	st	Z, r20
		setMask(*(keypad->columnsPORT), 0x07, keypad->columnsLSB);
     aa4:	fc 01       	movw	r30, r24
     aa6:	44 85       	ldd	r20, Z+12	; 0x0c
     aa8:	46 95       	lsr	r20
     aaa:	46 95       	lsr	r20
     aac:	46 95       	lsr	r20
     aae:	47 70       	andi	r20, 0x07	; 7
     ab0:	00 84       	ldd	r0, Z+8	; 0x08
     ab2:	f1 85       	ldd	r31, Z+9	; 0x09
     ab4:	e0 2d       	mov	r30, r0
     ab6:	50 81       	ld	r21, Z
     ab8:	02 c0       	rjmp	.+4      	; 0xabe <keypadInit+0x16a>
     aba:	22 0f       	add	r18, r18
     abc:	33 1f       	adc	r19, r19
     abe:	4a 95       	dec	r20
     ac0:	e2 f7       	brpl	.-8      	; 0xaba <keypadInit+0x166>
     ac2:	25 2b       	or	r18, r21
     ac4:	20 83       	st	Z, r18
		break;
     ac6:	4c c0       	rjmp	.+152    	; 0xb60 <keypadInit+0x20c>
	case KEYPAD_5X3:
		clrMask(*(keypad->linesDDR), 0x1F, keypad->linesLSB);
     ac8:	dc 01       	movw	r26, r24
     aca:	1c 96       	adiw	r26, 0x0c	; 12
     acc:	5c 91       	ld	r21, X
     ace:	1c 97       	sbiw	r26, 0x0c	; 12
     ad0:	57 70       	andi	r21, 0x07	; 7
     ad2:	ed 91       	ld	r30, X+
     ad4:	fc 91       	ld	r31, X
     ad6:	70 81       	ld	r23, Z
     ad8:	2f e1       	ldi	r18, 0x1F	; 31
     ada:	30 e0       	ldi	r19, 0x00	; 0
     adc:	d9 01       	movw	r26, r18
     ade:	02 c0       	rjmp	.+4      	; 0xae4 <keypadInit+0x190>
     ae0:	aa 0f       	add	r26, r26
     ae2:	bb 1f       	adc	r27, r27
     ae4:	5a 95       	dec	r21
     ae6:	e2 f7       	brpl	.-8      	; 0xae0 <keypadInit+0x18c>
     ae8:	ad 01       	movw	r20, r26
     aea:	40 95       	com	r20
     aec:	50 95       	com	r21
     aee:	47 23       	and	r20, r23
     af0:	40 83       	st	Z, r20
		setMask(*(keypad->linesPORT), 0x1F, keypad->linesLSB);
     af2:	fc 01       	movw	r30, r24
     af4:	44 85       	ldd	r20, Z+12	; 0x0c
     af6:	47 70       	andi	r20, 0x07	; 7
     af8:	02 80       	ldd	r0, Z+2	; 0x02
     afa:	f3 81       	ldd	r31, Z+3	; 0x03
     afc:	e0 2d       	mov	r30, r0
     afe:	50 81       	ld	r21, Z
     b00:	02 c0       	rjmp	.+4      	; 0xb06 <keypadInit+0x1b2>
     b02:	22 0f       	add	r18, r18
     b04:	33 1f       	adc	r19, r19
     b06:	4a 95       	dec	r20
     b08:	e2 f7       	brpl	.-8      	; 0xb02 <keypadInit+0x1ae>
     b0a:	25 2b       	or	r18, r21
     b0c:	20 83       	st	Z, r18
		setMask(*(keypad->columnsDDR), 0x07, keypad->columnsLSB);
     b0e:	dc 01       	movw	r26, r24
     b10:	1c 96       	adiw	r26, 0x0c	; 12
     b12:	4c 91       	ld	r20, X
     b14:	1c 97       	sbiw	r26, 0x0c	; 12
     b16:	46 95       	lsr	r20
     b18:	46 95       	lsr	r20
     b1a:	46 95       	lsr	r20
     b1c:	47 70       	andi	r20, 0x07	; 7
     b1e:	16 96       	adiw	r26, 0x06	; 6
     b20:	ed 91       	ld	r30, X+
     b22:	fc 91       	ld	r31, X
     b24:	17 97       	sbiw	r26, 0x07	; 7
     b26:	70 81       	ld	r23, Z
     b28:	27 e0       	ldi	r18, 0x07	; 7
     b2a:	30 e0       	ldi	r19, 0x00	; 0
     b2c:	d9 01       	movw	r26, r18
     b2e:	02 c0       	rjmp	.+4      	; 0xb34 <keypadInit+0x1e0>
     b30:	aa 0f       	add	r26, r26
     b32:	bb 1f       	adc	r27, r27
     b34:	4a 95       	dec	r20
     b36:	e2 f7       	brpl	.-8      	; 0xb30 <keypadInit+0x1dc>
     b38:	ad 01       	movw	r20, r26
     b3a:	47 2b       	or	r20, r23
     b3c:	40 83       	st	Z, r20
		setMask(*(keypad->columnsPORT), 0x07, keypad->columnsLSB);
     b3e:	fc 01       	movw	r30, r24
     b40:	44 85       	ldd	r20, Z+12	; 0x0c
     b42:	46 95       	lsr	r20
     b44:	46 95       	lsr	r20
     b46:	46 95       	lsr	r20
     b48:	47 70       	andi	r20, 0x07	; 7
     b4a:	00 84       	ldd	r0, Z+8	; 0x08
     b4c:	f1 85       	ldd	r31, Z+9	; 0x09
     b4e:	e0 2d       	mov	r30, r0
     b50:	50 81       	ld	r21, Z
     b52:	02 c0       	rjmp	.+4      	; 0xb58 <keypadInit+0x204>
     b54:	22 0f       	add	r18, r18
     b56:	33 1f       	adc	r19, r19
     b58:	4a 95       	dec	r20
     b5a:	e2 f7       	brpl	.-8      	; 0xb54 <keypadInit+0x200>
     b5c:	25 2b       	or	r18, r21
     b5e:	20 83       	st	Z, r18
		break;
	default:
		return KEYPAD_TYPE_NOT_ALLOWED;
	}
	keypad->debounceTime = debounceTime;
     b60:	66 0f       	add	r22, r22
     b62:	dc 01       	movw	r26, r24
     b64:	1e 96       	adiw	r26, 0x0e	; 14
     b66:	2c 91       	ld	r18, X
     b68:	1e 97       	sbiw	r26, 0x0e	; 14
     b6a:	21 70       	andi	r18, 0x01	; 1
     b6c:	62 2b       	or	r22, r18
     b6e:	1e 96       	adiw	r26, 0x0e	; 14
     b70:	6c 93       	st	X, r22
     b72:	1e 97       	sbiw	r26, 0x0e	; 14
	keypad->initialized = TRUE;
     b74:	1e 96       	adiw	r26, 0x0e	; 14
     b76:	2c 91       	ld	r18, X
     b78:	1e 97       	sbiw	r26, 0x0e	; 14
     b7a:	21 60       	ori	r18, 0x01	; 1
     b7c:	1e 96       	adiw	r26, 0x0e	; 14
     b7e:	2c 93       	st	X, r18

	return KEYPAD_OK;
     b80:	81 e0       	ldi	r24, 0x01	; 1
     b82:	08 95       	ret
 * -------------------------------------------------------------------------- */

keypadResult_t keypadInit(volatile keypadConfiguration_t * keypad, uint8 debounceTime)
{
	if(keypad->portConfigured == FALSE)
		return KEYPAD_PORTS_NOT_CONFIGURED;
     b84:	84 e0       	ldi	r24, 0x04	; 4
     b86:	08 95       	ret

	if(keypad->keysConfigured == FALSE)
		return KEYPAD_KEYS_NOT_CONFIGURED;
     b88:	85 e0       	ldi	r24, 0x05	; 5
     b8a:	08 95       	ret

	if(keypad->type == KEYPAD_TYPE_UNDEFINED)
		return KEYPAD_TYPE_NOT_ALLOWED;
     b8c:	82 e0       	ldi	r24, 0x02	; 2
     b8e:	08 95       	ret
		setMask(*(keypad->linesPORT), 0x1F, keypad->linesLSB);
		setMask(*(keypad->columnsDDR), 0x07, keypad->columnsLSB);
		setMask(*(keypad->columnsPORT), 0x07, keypad->columnsLSB);
		break;
	default:
		return KEYPAD_TYPE_NOT_ALLOWED;
     b90:	82 e0       	ldi	r24, 0x02	; 2
	}
	keypad->debounceTime = debounceTime;
	keypad->initialized = TRUE;

	return KEYPAD_OK;
}
     b92:	08 95       	ret

00000b94 <keypadRead>:
 * Arguments:	keypad			Pointer to the keypad struct
 * Returns:		Value stored in the keypad stuct, initialized with keypadSetKeys
 * -------------------------------------------------------------------------- */

uint8 keypadRead(volatile keypadConfiguration_t * keypad)
{
     b94:	af 92       	push	r10
     b96:	bf 92       	push	r11
     b98:	cf 92       	push	r12
     b9a:	df 92       	push	r13
     b9c:	ef 92       	push	r14
     b9e:	ff 92       	push	r15
     ba0:	0f 93       	push	r16
     ba2:	1f 93       	push	r17
     ba4:	cf 93       	push	r28
     ba6:	df 93       	push	r29
     ba8:	fc 01       	movw	r30, r24
	uint8 j;
	uint8 k;
	uint8 aux;
	uint8 key = 0xFF;

	for(i = 0;i < keypad->columns;i++){					// For each column
     baa:	85 85       	ldd	r24, Z+13	; 0x0d
     bac:	86 95       	lsr	r24
     bae:	86 95       	lsr	r24
     bb0:	86 95       	lsr	r24
     bb2:	87 70       	andi	r24, 0x07	; 7
     bb4:	09 f4       	brne	.+2      	; 0xbb8 <keypadRead+0x24>
     bb6:	a2 c0       	rjmp	.+324    	; 0xcfc <keypadRead+0x168>
     bb8:	a1 2c       	mov	r10, r1
     bba:	b1 2c       	mov	r11, r1
     bbc:	8f ef       	ldi	r24, 0xFF	; 255
     bbe:	00 e0       	ldi	r16, 0x00	; 0
		cli();
		clrBit(*(keypad->columnsPORT), (i + keypad->columnsLSB));	// Clear one columns
     bc0:	61 e0       	ldi	r22, 0x01	; 1
     bc2:	70 e0       	ldi	r23, 0x00	; 0
		sei();
		noOperation(5);												// Wait for syncronization
		aux = *(keypad->linesPIN) >> keypad->linesLSB;
		for(j = 0;j < keypad->lines;j++){				// For each line
     bc4:	e1 2c       	mov	r14, r1
     bc6:	f1 2c       	mov	r15, r1
	uint8 k;
	uint8 aux;
	uint8 key = 0xFF;

	for(i = 0;i < keypad->columns;i++){					// For each column
		cli();
     bc8:	f8 94       	cli
		clrBit(*(keypad->columnsPORT), (i + keypad->columnsLSB));	// Clear one columns
     bca:	94 85       	ldd	r25, Z+12	; 0x0c
     bcc:	96 95       	lsr	r25
     bce:	96 95       	lsr	r25
     bd0:	96 95       	lsr	r25
     bd2:	97 70       	andi	r25, 0x07	; 7
     bd4:	c0 85       	ldd	r28, Z+8	; 0x08
     bd6:	d1 85       	ldd	r29, Z+9	; 0x09
     bd8:	48 81       	ld	r20, Y
     bda:	95 01       	movw	r18, r10
     bdc:	29 0f       	add	r18, r25
     bde:	31 1d       	adc	r19, r1
     be0:	db 01       	movw	r26, r22
     be2:	02 c0       	rjmp	.+4      	; 0xbe8 <keypadRead+0x54>
     be4:	aa 0f       	add	r26, r26
     be6:	bb 1f       	adc	r27, r27
     be8:	2a 95       	dec	r18
     bea:	e2 f7       	brpl	.-8      	; 0xbe4 <keypadRead+0x50>
     bec:	9d 01       	movw	r18, r26
     bee:	20 95       	com	r18
     bf0:	30 95       	com	r19
     bf2:	24 23       	and	r18, r20
     bf4:	28 83       	st	Y, r18
		sei();
     bf6:	78 94       	sei
		noOperation(5);												// Wait for syncronization
     bf8:	00 c0       	rjmp	.+0      	; 0xbfa <keypadRead+0x66>
     bfa:	00 c0       	rjmp	.+0      	; 0xbfc <keypadRead+0x68>
     bfc:	00 00       	nop
		aux = *(keypad->linesPIN) >> keypad->linesLSB;
     bfe:	c4 81       	ldd	r28, Z+4	; 0x04
     c00:	d5 81       	ldd	r29, Z+5	; 0x05
     c02:	48 81       	ld	r20, Y
     c04:	94 85       	ldd	r25, Z+12	; 0x0c
     c06:	97 70       	andi	r25, 0x07	; 7
     c08:	50 e0       	ldi	r21, 0x00	; 0
     c0a:	02 c0       	rjmp	.+4      	; 0xc10 <keypadRead+0x7c>
     c0c:	55 95       	asr	r21
     c0e:	47 95       	ror	r20
     c10:	9a 95       	dec	r25
     c12:	e2 f7       	brpl	.-8      	; 0xc0c <keypadRead+0x78>
		for(j = 0;j < keypad->lines;j++){				// For each line
     c14:	95 85       	ldd	r25, Z+13	; 0x0d
     c16:	97 70       	andi	r25, 0x07	; 7
     c18:	09 f4       	brne	.+2      	; 0xc1c <keypadRead+0x88>
     c1a:	4d c0       	rjmp	.+154    	; 0xcb6 <keypadRead+0x122>
     c1c:	ce 2c       	mov	r12, r14
     c1e:	df 2c       	mov	r13, r15
     c20:	10 e0       	ldi	r17, 0x00	; 0
			if(isBitClr(aux, j)){					// Tests if the key is pressed
     c22:	55 27       	eor	r21, r21
     c24:	9a 01       	movw	r18, r20
     c26:	0c 2c       	mov	r0, r12
     c28:	02 c0       	rjmp	.+4      	; 0xc2e <keypadRead+0x9a>
     c2a:	35 95       	asr	r19
     c2c:	27 95       	ror	r18
     c2e:	0a 94       	dec	r0
     c30:	e2 f7       	brpl	.-8      	; 0xc2a <keypadRead+0x96>
     c32:	20 fd       	sbrc	r18, 0
     c34:	21 c0       	rjmp	.+66     	; 0xc78 <keypadRead+0xe4>
				key = keypad->keys[(keypad->lines * j) + i];			// Decodes the key using the table
     c36:	c2 85       	ldd	r28, Z+10	; 0x0a
     c38:	d3 85       	ldd	r29, Z+11	; 0x0b
     c3a:	25 85       	ldd	r18, Z+13	; 0x0d
     c3c:	27 70       	andi	r18, 0x07	; 7
     c3e:	2c 9d       	mul	r18, r12
     c40:	c0 01       	movw	r24, r0
     c42:	2d 9d       	mul	r18, r13
     c44:	90 0d       	add	r25, r0
     c46:	11 24       	eor	r1, r1
     c48:	ca 0d       	add	r28, r10
     c4a:	db 1d       	adc	r29, r11
     c4c:	c8 0f       	add	r28, r24
     c4e:	d9 1f       	adc	r29, r25
     c50:	88 81       	ld	r24, Y
				for(k = 0;k < keypad->debounceTime; k++)
     c52:	96 85       	ldd	r25, Z+14	; 0x0e
     c54:	96 95       	lsr	r25
     c56:	81 f0       	breq	.+32     	; 0xc78 <keypadRead+0xe4>
     c58:	90 e0       	ldi	r25, 0x00	; 0
     c5a:	af e9       	ldi	r26, 0x9F	; 159
     c5c:	bf e0       	ldi	r27, 0x0F	; 15
     c5e:	11 97       	sbiw	r26, 0x01	; 1
     c60:	f1 f7       	brne	.-4      	; 0xc5e <keypadRead+0xca>
     c62:	00 c0       	rjmp	.+0      	; 0xc64 <keypadRead+0xd0>
     c64:	00 00       	nop
     c66:	9f 5f       	subi	r25, 0xFF	; 255
     c68:	26 85       	ldd	r18, Z+14	; 0x0e
     c6a:	26 95       	lsr	r18
     c6c:	c9 2f       	mov	r28, r25
     c6e:	d0 e0       	ldi	r29, 0x00	; 0
     c70:	30 e0       	ldi	r19, 0x00	; 0
     c72:	c2 17       	cp	r28, r18
     c74:	d3 07       	cpc	r29, r19
     c76:	8c f3       	brlt	.-30     	; 0xc5a <keypadRead+0xc6>
     c78:	eb 01       	movw	r28, r22
     c7a:	02 c0       	rjmp	.+4      	; 0xc80 <keypadRead+0xec>
     c7c:	cc 0f       	add	r28, r28
     c7e:	dd 1f       	adc	r29, r29
     c80:	ca 94       	dec	r12
     c82:	e2 f7       	brpl	.-8      	; 0xc7c <keypadRead+0xe8>
					_delay_ms(1);		// Debounce time
			}
			while(isBitClr(*(keypad->linesPIN) >> keypad->linesLSB,j)){
     c84:	a4 81       	ldd	r26, Z+4	; 0x04
     c86:	b5 81       	ldd	r27, Z+5	; 0x05
     c88:	2c 91       	ld	r18, X
     c8a:	94 85       	ldd	r25, Z+12	; 0x0c
     c8c:	97 70       	andi	r25, 0x07	; 7
     c8e:	30 e0       	ldi	r19, 0x00	; 0
     c90:	02 c0       	rjmp	.+4      	; 0xc96 <keypadRead+0x102>
     c92:	35 95       	asr	r19
     c94:	27 95       	ror	r18
     c96:	9a 95       	dec	r25
     c98:	e2 f7       	brpl	.-8      	; 0xc92 <keypadRead+0xfe>
     c9a:	2c 23       	and	r18, r28
     c9c:	3d 23       	and	r19, r29
     c9e:	23 2b       	or	r18, r19
     ca0:	89 f3       	breq	.-30     	; 0xc84 <keypadRead+0xf0>
		cli();
		clrBit(*(keypad->columnsPORT), (i + keypad->columnsLSB));	// Clear one columns
		sei();
		noOperation(5);												// Wait for syncronization
		aux = *(keypad->linesPIN) >> keypad->linesLSB;
		for(j = 0;j < keypad->lines;j++){				// For each line
     ca2:	1f 5f       	subi	r17, 0xFF	; 255
     ca4:	c1 2e       	mov	r12, r17
     ca6:	d1 2c       	mov	r13, r1
     ca8:	25 85       	ldd	r18, Z+13	; 0x0d
     caa:	27 70       	andi	r18, 0x07	; 7
     cac:	30 e0       	ldi	r19, 0x00	; 0
     cae:	c2 16       	cp	r12, r18
     cb0:	d3 06       	cpc	r13, r19
     cb2:	0c f4       	brge	.+2      	; 0xcb6 <keypadRead+0x122>
     cb4:	b7 cf       	rjmp	.-146    	; 0xc24 <keypadRead+0x90>
			}
			while(isBitClr(*(keypad->linesPIN) >> keypad->linesLSB,j)){
			}
				;	// Wait until key is released
		}
		cli();
     cb6:	f8 94       	cli
		setBit(*(keypad->columnsPORT), (i + keypad->columnsLSB));	// Restore column value
     cb8:	94 85       	ldd	r25, Z+12	; 0x0c
     cba:	96 95       	lsr	r25
     cbc:	96 95       	lsr	r25
     cbe:	96 95       	lsr	r25
     cc0:	97 70       	andi	r25, 0x07	; 7
     cc2:	c0 85       	ldd	r28, Z+8	; 0x08
     cc4:	d1 85       	ldd	r29, Z+9	; 0x09
     cc6:	48 81       	ld	r20, Y
     cc8:	d5 01       	movw	r26, r10
     cca:	a9 0f       	add	r26, r25
     ccc:	b1 1d       	adc	r27, r1
     cce:	9b 01       	movw	r18, r22
     cd0:	02 c0       	rjmp	.+4      	; 0xcd6 <keypadRead+0x142>
     cd2:	22 0f       	add	r18, r18
     cd4:	33 1f       	adc	r19, r19
     cd6:	aa 95       	dec	r26
     cd8:	e2 f7       	brpl	.-8      	; 0xcd2 <keypadRead+0x13e>
     cda:	24 2b       	or	r18, r20
     cdc:	28 83       	st	Y, r18
		sei();
     cde:	78 94       	sei
	uint8 j;
	uint8 k;
	uint8 aux;
	uint8 key = 0xFF;

	for(i = 0;i < keypad->columns;i++){					// For each column
     ce0:	0f 5f       	subi	r16, 0xFF	; 255
     ce2:	a0 2e       	mov	r10, r16
     ce4:	b1 2c       	mov	r11, r1
     ce6:	25 85       	ldd	r18, Z+13	; 0x0d
     ce8:	26 95       	lsr	r18
     cea:	26 95       	lsr	r18
     cec:	26 95       	lsr	r18
     cee:	27 70       	andi	r18, 0x07	; 7
     cf0:	30 e0       	ldi	r19, 0x00	; 0
     cf2:	a2 16       	cp	r10, r18
     cf4:	b3 06       	cpc	r11, r19
     cf6:	0c f4       	brge	.+2      	; 0xcfa <keypadRead+0x166>
     cf8:	67 cf       	rjmp	.-306    	; 0xbc8 <keypadRead+0x34>
     cfa:	01 c0       	rjmp	.+2      	; 0xcfe <keypadRead+0x16a>
{
	uint8 i;
	uint8 j;
	uint8 k;
	uint8 aux;
	uint8 key = 0xFF;
     cfc:	8f ef       	ldi	r24, 0xFF	; 255
		setBit(*(keypad->columnsPORT), (i + keypad->columnsLSB));	// Restore column value
		sei();
	}

	return key;
     cfe:	df 91       	pop	r29
     d00:	cf 91       	pop	r28
     d02:	1f 91       	pop	r17
     d04:	0f 91       	pop	r16
     d06:	ff 90       	pop	r15
     d08:	ef 90       	pop	r14
     d0a:	df 90       	pop	r13
     d0c:	cf 90       	pop	r12
     d0e:	bf 90       	pop	r11
     d10:	af 90       	pop	r10
     d12:	08 95       	ret

00000d14 <lcdResetConfiguration>:
		lcd->cursorColumn--;
		return lcdWriteCommand(lcd, 0x18);
	}
	lcd->cursorColumn++;
	return lcdWriteCommand(lcd, 0x1C);
}
     d14:	fc 01       	movw	r30, r24
     d16:	11 82       	std	Z+1, r1	; 0x01
     d18:	10 82       	st	Z, r1
     d1a:	13 82       	std	Z+3, r1	; 0x03
     d1c:	12 82       	std	Z+2, r1	; 0x02
     d1e:	84 81       	ldd	r24, Z+4	; 0x04
     d20:	88 7f       	andi	r24, 0xF8	; 248
     d22:	84 83       	std	Z+4, r24	; 0x04
     d24:	16 82       	std	Z+6, r1	; 0x06
     d26:	15 82       	std	Z+5, r1	; 0x05
     d28:	10 86       	std	Z+8, r1	; 0x08
     d2a:	17 82       	std	Z+7, r1	; 0x07
     d2c:	81 85       	ldd	r24, Z+9	; 0x09
     d2e:	87 7c       	andi	r24, 0xC7	; 199
     d30:	81 87       	std	Z+9, r24	; 0x09
     d32:	81 85       	ldd	r24, Z+9	; 0x09
     d34:	88 7f       	andi	r24, 0xF8	; 248
     d36:	81 87       	std	Z+9, r24	; 0x09
     d38:	82 85       	ldd	r24, Z+10	; 0x0a
     d3a:	8f 7b       	andi	r24, 0xBF	; 191
     d3c:	82 87       	std	Z+10, r24	; 0x0a
     d3e:	82 85       	ldd	r24, Z+10	; 0x0a
     d40:	8f 77       	andi	r24, 0x7F	; 127
     d42:	82 87       	std	Z+10, r24	; 0x0a
     d44:	83 85       	ldd	r24, Z+11	; 0x0b
     d46:	8e 7f       	andi	r24, 0xFE	; 254
     d48:	83 87       	std	Z+11, r24	; 0x0b
     d4a:	84 85       	ldd	r24, Z+12	; 0x0c
     d4c:	8d 7f       	andi	r24, 0xFD	; 253
     d4e:	84 87       	std	Z+12, r24	; 0x0c
     d50:	84 85       	ldd	r24, Z+12	; 0x0c
     d52:	8b 7f       	andi	r24, 0xFB	; 251
     d54:	84 87       	std	Z+12, r24	; 0x0c
     d56:	84 85       	ldd	r24, Z+12	; 0x0c
     d58:	87 7f       	andi	r24, 0xF7	; 247
     d5a:	84 87       	std	Z+12, r24	; 0x0c
     d5c:	81 85       	ldd	r24, Z+9	; 0x09
     d5e:	8f 73       	andi	r24, 0x3F	; 63
     d60:	81 87       	std	Z+9, r24	; 0x09
     d62:	82 85       	ldd	r24, Z+10	; 0x0a
     d64:	88 7f       	andi	r24, 0xF8	; 248
     d66:	82 87       	std	Z+10, r24	; 0x0a
     d68:	83 85       	ldd	r24, Z+11	; 0x0b
     d6a:	8f 77       	andi	r24, 0x7F	; 127
     d6c:	83 87       	std	Z+11, r24	; 0x0b
     d6e:	84 85       	ldd	r24, Z+12	; 0x0c
     d70:	8e 7f       	andi	r24, 0xFE	; 254
     d72:	84 87       	std	Z+12, r24	; 0x0c
     d74:	83 85       	ldd	r24, Z+11	; 0x0b
     d76:	81 78       	andi	r24, 0x81	; 129
     d78:	83 87       	std	Z+11, r24	; 0x0b
     d7a:	82 85       	ldd	r24, Z+10	; 0x0a
     d7c:	87 7f       	andi	r24, 0xF7	; 247
     d7e:	82 87       	std	Z+10, r24	; 0x0a
     d80:	82 85       	ldd	r24, Z+10	; 0x0a
     d82:	80 61       	ori	r24, 0x10	; 16
     d84:	82 87       	std	Z+10, r24	; 0x0a
     d86:	82 85       	ldd	r24, Z+10	; 0x0a
     d88:	8f 7d       	andi	r24, 0xDF	; 223
     d8a:	82 87       	std	Z+10, r24	; 0x0a
     d8c:	80 e0       	ldi	r24, 0x00	; 0
     d8e:	08 95       	ret

00000d90 <lcdSetDataPort>:
     d90:	fc 01       	movw	r30, r24
     d92:	71 83       	std	Z+1, r23	; 0x01
     d94:	60 83       	st	Z, r22
     d96:	53 83       	std	Z+3, r21	; 0x03
     d98:	42 83       	std	Z+2, r20	; 0x02
     d9a:	27 70       	andi	r18, 0x07	; 7
     d9c:	84 81       	ldd	r24, Z+4	; 0x04
     d9e:	88 7f       	andi	r24, 0xF8	; 248
     da0:	28 2b       	or	r18, r24
     da2:	24 83       	std	Z+4, r18	; 0x04
     da4:	84 85       	ldd	r24, Z+12	; 0x0c
     da6:	82 60       	ori	r24, 0x02	; 2
     da8:	84 87       	std	Z+12, r24	; 0x0c
     daa:	80 e0       	ldi	r24, 0x00	; 0
     dac:	08 95       	ret

00000dae <lcdSetControlPort>:
     dae:	0f 93       	push	r16
     db0:	fc 01       	movw	r30, r24
     db2:	76 83       	std	Z+6, r23	; 0x06
     db4:	65 83       	std	Z+5, r22	; 0x05
     db6:	50 87       	std	Z+8, r21	; 0x08
     db8:	47 83       	std	Z+7, r20	; 0x07
     dba:	27 70       	andi	r18, 0x07	; 7
     dbc:	22 0f       	add	r18, r18
     dbe:	22 0f       	add	r18, r18
     dc0:	22 0f       	add	r18, r18
     dc2:	81 85       	ldd	r24, Z+9	; 0x09
     dc4:	87 7c       	andi	r24, 0xC7	; 199
     dc6:	28 2b       	or	r18, r24
     dc8:	21 87       	std	Z+9, r18	; 0x09
     dca:	07 70       	andi	r16, 0x07	; 7
     dcc:	81 85       	ldd	r24, Z+9	; 0x09
     dce:	88 7f       	andi	r24, 0xF8	; 248
     dd0:	08 2b       	or	r16, r24
     dd2:	01 87       	std	Z+9, r16	; 0x09
     dd4:	84 85       	ldd	r24, Z+12	; 0x0c
     dd6:	84 60       	ori	r24, 0x04	; 4
     dd8:	84 87       	std	Z+12, r24	; 0x0c
     dda:	80 e0       	ldi	r24, 0x00	; 0
     ddc:	0f 91       	pop	r16
     dde:	08 95       	ret

00000de0 <lcdStdio>:
     de0:	fc 01       	movw	r30, r24
     de2:	24 85       	ldd	r18, Z+12	; 0x0c
     de4:	23 ff       	sbrs	r18, 3
     de6:	10 c0       	rjmp	.+32     	; 0xe08 <lcdStdio+0x28>
     de8:	eb e1       	ldi	r30, 0x1B	; 27
     dea:	f2 e0       	ldi	r31, 0x02	; 2
     dec:	22 e2       	ldi	r18, 0x22	; 34
     dee:	31 e0       	ldi	r19, 0x01	; 1
     df0:	35 83       	std	Z+5, r19	; 0x05
     df2:	24 83       	std	Z+4, r18	; 0x04
     df4:	33 83       	std	Z+3, r19	; 0x03
     df6:	22 83       	std	Z+2, r18	; 0x02
     df8:	31 83       	std	Z+1, r19	; 0x01
     dfa:	20 83       	st	Z, r18
     dfc:	90 93 15 02 	sts	0x0215, r25	; 0x800215 <__data_end+0x1>
     e00:	80 93 14 02 	sts	0x0214, r24	; 0x800214 <__data_end>
     e04:	80 e0       	ldi	r24, 0x00	; 0
     e06:	08 95       	ret
     e08:	87 e0       	ldi	r24, 0x07	; 7
     e0a:	08 95       	ret

00000e0c <lcdWriteCommand>:
     e0c:	cf 93       	push	r28
     e0e:	df 93       	push	r29
     e10:	fc 01       	movw	r30, r24
     e12:	31 85       	ldd	r19, Z+9	; 0x09
     e14:	37 70       	andi	r19, 0x07	; 7
     e16:	a7 81       	ldd	r26, Z+7	; 0x07
     e18:	b0 85       	ldd	r27, Z+8	; 0x08
     e1a:	4c 91       	ld	r20, X
     e1c:	81 e0       	ldi	r24, 0x01	; 1
     e1e:	90 e0       	ldi	r25, 0x00	; 0
     e20:	ec 01       	movw	r28, r24
     e22:	02 c0       	rjmp	.+4      	; 0xe28 <lcdWriteCommand+0x1c>
     e24:	cc 0f       	add	r28, r28
     e26:	dd 1f       	adc	r29, r29
     e28:	3a 95       	dec	r19
     e2a:	e2 f7       	brpl	.-8      	; 0xe24 <lcdWriteCommand+0x18>
     e2c:	9e 01       	movw	r18, r28
     e2e:	20 95       	com	r18
     e30:	30 95       	com	r19
     e32:	24 23       	and	r18, r20
     e34:	2c 93       	st	X, r18
     e36:	31 85       	ldd	r19, Z+9	; 0x09
     e38:	36 95       	lsr	r19
     e3a:	36 95       	lsr	r19
     e3c:	36 95       	lsr	r19
     e3e:	37 70       	andi	r19, 0x07	; 7
     e40:	a7 81       	ldd	r26, Z+7	; 0x07
     e42:	b0 85       	ldd	r27, Z+8	; 0x08
     e44:	4c 91       	ld	r20, X
     e46:	ec 01       	movw	r28, r24
     e48:	02 c0       	rjmp	.+4      	; 0xe4e <lcdWriteCommand+0x42>
     e4a:	cc 0f       	add	r28, r28
     e4c:	dd 1f       	adc	r29, r29
     e4e:	3a 95       	dec	r19
     e50:	e2 f7       	brpl	.-8      	; 0xe4a <lcdWriteCommand+0x3e>
     e52:	9e 01       	movw	r18, r28
     e54:	20 95       	com	r18
     e56:	30 95       	com	r19
     e58:	24 23       	and	r18, r20
     e5a:	2c 93       	st	X, r18
     e5c:	54 81       	ldd	r21, Z+4	; 0x04
     e5e:	57 70       	andi	r21, 0x07	; 7
     e60:	a2 81       	ldd	r26, Z+2	; 0x02
     e62:	b3 81       	ldd	r27, Z+3	; 0x03
     e64:	7c 91       	ld	r23, X
     e66:	2f e0       	ldi	r18, 0x0F	; 15
     e68:	30 e0       	ldi	r19, 0x00	; 0
     e6a:	e9 01       	movw	r28, r18
     e6c:	02 c0       	rjmp	.+4      	; 0xe72 <lcdWriteCommand+0x66>
     e6e:	cc 0f       	add	r28, r28
     e70:	dd 1f       	adc	r29, r29
     e72:	5a 95       	dec	r21
     e74:	e2 f7       	brpl	.-8      	; 0xe6e <lcdWriteCommand+0x62>
     e76:	ae 01       	movw	r20, r28
     e78:	40 95       	com	r20
     e7a:	50 95       	com	r21
     e7c:	47 23       	and	r20, r23
     e7e:	4c 93       	st	X, r20
     e80:	74 81       	ldd	r23, Z+4	; 0x04
     e82:	77 70       	andi	r23, 0x07	; 7
     e84:	a2 81       	ldd	r26, Z+2	; 0x02
     e86:	b3 81       	ldd	r27, Z+3	; 0x03
     e88:	5c 91       	ld	r21, X
     e8a:	46 2f       	mov	r20, r22
     e8c:	42 95       	swap	r20
     e8e:	4f 70       	andi	r20, 0x0F	; 15
     e90:	01 c0       	rjmp	.+2      	; 0xe94 <lcdWriteCommand+0x88>
     e92:	44 0f       	add	r20, r20
     e94:	7a 95       	dec	r23
     e96:	ea f7       	brpl	.-6      	; 0xe92 <lcdWriteCommand+0x86>
     e98:	45 2b       	or	r20, r21
     e9a:	4c 93       	st	X, r20
     e9c:	41 85       	ldd	r20, Z+9	; 0x09
     e9e:	46 95       	lsr	r20
     ea0:	46 95       	lsr	r20
     ea2:	46 95       	lsr	r20
     ea4:	47 70       	andi	r20, 0x07	; 7
     ea6:	a7 81       	ldd	r26, Z+7	; 0x07
     ea8:	b0 85       	ldd	r27, Z+8	; 0x08
     eaa:	7c 91       	ld	r23, X
     eac:	ec 01       	movw	r28, r24
     eae:	02 c0       	rjmp	.+4      	; 0xeb4 <lcdWriteCommand+0xa8>
     eb0:	cc 0f       	add	r28, r28
     eb2:	dd 1f       	adc	r29, r29
     eb4:	4a 95       	dec	r20
     eb6:	e2 f7       	brpl	.-8      	; 0xeb0 <lcdWriteCommand+0xa4>
     eb8:	ae 01       	movw	r20, r28
     eba:	47 2b       	or	r20, r23
     ebc:	4c 93       	st	X, r20
     ebe:	d5 e0       	ldi	r29, 0x05	; 5
     ec0:	da 95       	dec	r29
     ec2:	f1 f7       	brne	.-4      	; 0xec0 <lcdWriteCommand+0xb4>
     ec4:	00 00       	nop
     ec6:	51 85       	ldd	r21, Z+9	; 0x09
     ec8:	56 95       	lsr	r21
     eca:	56 95       	lsr	r21
     ecc:	56 95       	lsr	r21
     ece:	57 70       	andi	r21, 0x07	; 7
     ed0:	a7 81       	ldd	r26, Z+7	; 0x07
     ed2:	b0 85       	ldd	r27, Z+8	; 0x08
     ed4:	7c 91       	ld	r23, X
     ed6:	ec 01       	movw	r28, r24
     ed8:	02 c0       	rjmp	.+4      	; 0xede <lcdWriteCommand+0xd2>
     eda:	cc 0f       	add	r28, r28
     edc:	dd 1f       	adc	r29, r29
     ede:	5a 95       	dec	r21
     ee0:	e2 f7       	brpl	.-8      	; 0xeda <lcdWriteCommand+0xce>
     ee2:	ae 01       	movw	r20, r28
     ee4:	40 95       	com	r20
     ee6:	50 95       	com	r21
     ee8:	47 23       	and	r20, r23
     eea:	4c 93       	st	X, r20
     eec:	d5 e0       	ldi	r29, 0x05	; 5
     eee:	da 95       	dec	r29
     ef0:	f1 f7       	brne	.-4      	; 0xeee <lcdWriteCommand+0xe2>
     ef2:	00 00       	nop
     ef4:	44 81       	ldd	r20, Z+4	; 0x04
     ef6:	47 70       	andi	r20, 0x07	; 7
     ef8:	a2 81       	ldd	r26, Z+2	; 0x02
     efa:	b3 81       	ldd	r27, Z+3	; 0x03
     efc:	5c 91       	ld	r21, X
     efe:	02 c0       	rjmp	.+4      	; 0xf04 <lcdWriteCommand+0xf8>
     f00:	22 0f       	add	r18, r18
     f02:	33 1f       	adc	r19, r19
     f04:	4a 95       	dec	r20
     f06:	e2 f7       	brpl	.-8      	; 0xf00 <lcdWriteCommand+0xf4>
     f08:	20 95       	com	r18
     f0a:	30 95       	com	r19
     f0c:	25 23       	and	r18, r21
     f0e:	2c 93       	st	X, r18
     f10:	44 81       	ldd	r20, Z+4	; 0x04
     f12:	47 70       	andi	r20, 0x07	; 7
     f14:	a2 81       	ldd	r26, Z+2	; 0x02
     f16:	b3 81       	ldd	r27, Z+3	; 0x03
     f18:	3c 91       	ld	r19, X
     f1a:	26 2f       	mov	r18, r22
     f1c:	2f 70       	andi	r18, 0x0F	; 15
     f1e:	01 c0       	rjmp	.+2      	; 0xf22 <lcdWriteCommand+0x116>
     f20:	22 0f       	add	r18, r18
     f22:	4a 95       	dec	r20
     f24:	ea f7       	brpl	.-6      	; 0xf20 <lcdWriteCommand+0x114>
     f26:	23 2b       	or	r18, r19
     f28:	2c 93       	st	X, r18
     f2a:	21 85       	ldd	r18, Z+9	; 0x09
     f2c:	26 95       	lsr	r18
     f2e:	26 95       	lsr	r18
     f30:	26 95       	lsr	r18
     f32:	27 70       	andi	r18, 0x07	; 7
     f34:	a7 81       	ldd	r26, Z+7	; 0x07
     f36:	b0 85       	ldd	r27, Z+8	; 0x08
     f38:	4c 91       	ld	r20, X
     f3a:	ec 01       	movw	r28, r24
     f3c:	02 c0       	rjmp	.+4      	; 0xf42 <lcdWriteCommand+0x136>
     f3e:	cc 0f       	add	r28, r28
     f40:	dd 1f       	adc	r29, r29
     f42:	2a 95       	dec	r18
     f44:	e2 f7       	brpl	.-8      	; 0xf3e <lcdWriteCommand+0x132>
     f46:	9e 01       	movw	r18, r28
     f48:	24 2b       	or	r18, r20
     f4a:	2c 93       	st	X, r18
     f4c:	d5 e0       	ldi	r29, 0x05	; 5
     f4e:	da 95       	dec	r29
     f50:	f1 f7       	brne	.-4      	; 0xf4e <lcdWriteCommand+0x142>
     f52:	00 00       	nop
     f54:	21 85       	ldd	r18, Z+9	; 0x09
     f56:	26 95       	lsr	r18
     f58:	26 95       	lsr	r18
     f5a:	26 95       	lsr	r18
     f5c:	27 70       	andi	r18, 0x07	; 7
     f5e:	a7 81       	ldd	r26, Z+7	; 0x07
     f60:	b0 85       	ldd	r27, Z+8	; 0x08
     f62:	3c 91       	ld	r19, X
     f64:	02 c0       	rjmp	.+4      	; 0xf6a <lcdWriteCommand+0x15e>
     f66:	88 0f       	add	r24, r24
     f68:	99 1f       	adc	r25, r25
     f6a:	2a 95       	dec	r18
     f6c:	e2 f7       	brpl	.-8      	; 0xf66 <lcdWriteCommand+0x15a>
     f6e:	80 95       	com	r24
     f70:	90 95       	com	r25
     f72:	83 23       	and	r24, r19
     f74:	8c 93       	st	X, r24
     f76:	25 e0       	ldi	r18, 0x05	; 5
     f78:	2a 95       	dec	r18
     f7a:	f1 f7       	brne	.-4      	; 0xf78 <lcdWriteCommand+0x16c>
     f7c:	00 00       	nop
     f7e:	61 50       	subi	r22, 0x01	; 1
     f80:	62 30       	cpi	r22, 0x02	; 2
     f82:	80 f4       	brcc	.+32     	; 0xfa4 <lcdWriteCommand+0x198>
     f84:	8f e3       	ldi	r24, 0x3F	; 63
     f86:	9f e1       	ldi	r25, 0x1F	; 31
     f88:	01 97       	sbiw	r24, 0x01	; 1
     f8a:	f1 f7       	brne	.-4      	; 0xf88 <lcdWriteCommand+0x17c>
     f8c:	00 c0       	rjmp	.+0      	; 0xf8e <lcdWriteCommand+0x182>
     f8e:	00 00       	nop
     f90:	83 85       	ldd	r24, Z+11	; 0x0b
     f92:	8f 77       	andi	r24, 0x7F	; 127
     f94:	83 87       	std	Z+11, r24	; 0x0b
     f96:	84 85       	ldd	r24, Z+12	; 0x0c
     f98:	8e 7f       	andi	r24, 0xFE	; 254
     f9a:	84 87       	std	Z+12, r24	; 0x0c
     f9c:	83 85       	ldd	r24, Z+11	; 0x0b
     f9e:	81 78       	andi	r24, 0x81	; 129
     fa0:	83 87       	std	Z+11, r24	; 0x0b
     fa2:	04 c0       	rjmp	.+8      	; 0xfac <lcdWriteCommand+0x1a0>
     fa4:	95 ed       	ldi	r25, 0xD5	; 213
     fa6:	9a 95       	dec	r25
     fa8:	f1 f7       	brne	.-4      	; 0xfa6 <lcdWriteCommand+0x19a>
     faa:	00 00       	nop
     fac:	80 e0       	ldi	r24, 0x00	; 0
     fae:	df 91       	pop	r29
     fb0:	cf 91       	pop	r28
     fb2:	08 95       	ret

00000fb4 <lcdClearScreen>:
     fb4:	fc 01       	movw	r30, r24
     fb6:	24 85       	ldd	r18, Z+12	; 0x0c
     fb8:	23 ff       	sbrs	r18, 3
     fba:	03 c0       	rjmp	.+6      	; 0xfc2 <lcdClearScreen+0xe>
     fbc:	61 e0       	ldi	r22, 0x01	; 1
     fbe:	26 cf       	rjmp	.-436    	; 0xe0c <lcdWriteCommand>
     fc0:	08 95       	ret
     fc2:	87 e0       	ldi	r24, 0x07	; 7
     fc4:	08 95       	ret

00000fc6 <lcdCursorGoTo>:
     fc6:	0f 93       	push	r16
     fc8:	1f 93       	push	r17
     fca:	dc 01       	movw	r26, r24
     fcc:	1c 96       	adiw	r26, 0x0c	; 12
     fce:	2c 91       	ld	r18, X
     fd0:	1c 97       	sbiw	r26, 0x0c	; 12
     fd2:	23 ff       	sbrs	r18, 3
     fd4:	9d c0       	rjmp	.+314    	; 0x1110 <lcdCursorGoTo+0x14a>
     fd6:	61 30       	cpi	r22, 0x01	; 1
     fd8:	a9 f4       	brne	.+42     	; 0x1004 <lcdCursorGoTo+0x3e>
     fda:	19 96       	adiw	r26, 0x09	; 9
     fdc:	2c 91       	ld	r18, X
     fde:	19 97       	sbiw	r26, 0x09	; 9
     fe0:	32 2f       	mov	r19, r18
     fe2:	32 95       	swap	r19
     fe4:	36 95       	lsr	r19
     fe6:	36 95       	lsr	r19
     fe8:	33 70       	andi	r19, 0x03	; 3
     fea:	1a 96       	adiw	r26, 0x0a	; 10
     fec:	2c 91       	ld	r18, X
     fee:	27 70       	andi	r18, 0x07	; 7
     ff0:	22 0f       	add	r18, r18
     ff2:	22 0f       	add	r18, r18
     ff4:	23 2b       	or	r18, r19
     ff6:	21 50       	subi	r18, 0x01	; 1
     ff8:	22 31       	cpi	r18, 0x12	; 18
     ffa:	08 f0       	brcs	.+2      	; 0xffe <lcdCursorGoTo+0x38>
     ffc:	8b c0       	rjmp	.+278    	; 0x1114 <lcdCursorGoTo+0x14e>
     ffe:	2f ef       	ldi	r18, 0xFF	; 255
    1000:	24 0f       	add	r18, r20
    1002:	6c c0       	rjmp	.+216    	; 0x10dc <lcdCursorGoTo+0x116>
    1004:	62 30       	cpi	r22, 0x02	; 2
    1006:	f9 f4       	brne	.+62     	; 0x1046 <lcdCursorGoTo+0x80>
    1008:	dc 01       	movw	r26, r24
    100a:	19 96       	adiw	r26, 0x09	; 9
    100c:	ec 91       	ld	r30, X
    100e:	19 97       	sbiw	r26, 0x09	; 9
    1010:	2e 2f       	mov	r18, r30
    1012:	22 95       	swap	r18
    1014:	26 95       	lsr	r18
    1016:	26 95       	lsr	r18
    1018:	23 70       	andi	r18, 0x03	; 3
    101a:	1a 96       	adiw	r26, 0x0a	; 10
    101c:	0c 91       	ld	r16, X
    101e:	07 70       	andi	r16, 0x07	; 7
    1020:	00 0f       	add	r16, r16
    1022:	00 0f       	add	r16, r16
    1024:	e0 2f       	mov	r30, r16
    1026:	e2 2b       	or	r30, r18
    1028:	0e 2f       	mov	r16, r30
    102a:	10 e0       	ldi	r17, 0x00	; 0
    102c:	f8 01       	movw	r30, r16
    102e:	31 97       	sbiw	r30, 0x01	; 1
    1030:	e2 31       	cpi	r30, 0x12	; 18
    1032:	f1 05       	cpc	r31, r1
    1034:	18 f4       	brcc	.+6      	; 0x103c <lcdCursorGoTo+0x76>
    1036:	ec 5c       	subi	r30, 0xCC	; 204
    1038:	ff 4f       	sbci	r31, 0xFF	; 255
    103a:	e8 c3       	rjmp	.+2000   	; 0x180c <__tablejump2__>
    103c:	83 e0       	ldi	r24, 0x03	; 3
    103e:	71 c0       	rjmp	.+226    	; 0x1122 <lcdCursorGoTo+0x15c>
    1040:	2f e3       	ldi	r18, 0x3F	; 63
    1042:	24 0f       	add	r18, r20
    1044:	4b c0       	rjmp	.+150    	; 0x10dc <lcdCursorGoTo+0x116>
    1046:	63 30       	cpi	r22, 0x03	; 3
    1048:	29 f5       	brne	.+74     	; 0x1094 <lcdCursorGoTo+0xce>
    104a:	dc 01       	movw	r26, r24
    104c:	19 96       	adiw	r26, 0x09	; 9
    104e:	ec 91       	ld	r30, X
    1050:	19 97       	sbiw	r26, 0x09	; 9
    1052:	2e 2f       	mov	r18, r30
    1054:	22 95       	swap	r18
    1056:	26 95       	lsr	r18
    1058:	26 95       	lsr	r18
    105a:	23 70       	andi	r18, 0x03	; 3
    105c:	1a 96       	adiw	r26, 0x0a	; 10
    105e:	0c 91       	ld	r16, X
    1060:	07 70       	andi	r16, 0x07	; 7
    1062:	00 0f       	add	r16, r16
    1064:	00 0f       	add	r16, r16
    1066:	e0 2f       	mov	r30, r16
    1068:	e2 2b       	or	r30, r18
    106a:	0e 2f       	mov	r16, r30
    106c:	10 e0       	ldi	r17, 0x00	; 0
    106e:	f8 01       	movw	r30, r16
    1070:	31 97       	sbiw	r30, 0x01	; 1
    1072:	e2 31       	cpi	r30, 0x12	; 18
    1074:	f1 05       	cpc	r31, r1
    1076:	18 f4       	brcc	.+6      	; 0x107e <lcdCursorGoTo+0xb8>
    1078:	ea 5b       	subi	r30, 0xBA	; 186
    107a:	ff 4f       	sbci	r31, 0xFF	; 255
    107c:	c7 c3       	rjmp	.+1934   	; 0x180c <__tablejump2__>
    107e:	83 e0       	ldi	r24, 0x03	; 3
    1080:	50 c0       	rjmp	.+160    	; 0x1122 <lcdCursorGoTo+0x15c>
    1082:	2b e0       	ldi	r18, 0x0B	; 11
    1084:	24 0f       	add	r18, r20
    1086:	2a c0       	rjmp	.+84     	; 0x10dc <lcdCursorGoTo+0x116>
    1088:	2f e0       	ldi	r18, 0x0F	; 15
    108a:	24 0f       	add	r18, r20
    108c:	27 c0       	rjmp	.+78     	; 0x10dc <lcdCursorGoTo+0x116>
    108e:	23 e1       	ldi	r18, 0x13	; 19
    1090:	24 0f       	add	r18, r20
    1092:	24 c0       	rjmp	.+72     	; 0x10dc <lcdCursorGoTo+0x116>
    1094:	dc 01       	movw	r26, r24
    1096:	19 96       	adiw	r26, 0x09	; 9
    1098:	ec 91       	ld	r30, X
    109a:	19 97       	sbiw	r26, 0x09	; 9
    109c:	2e 2f       	mov	r18, r30
    109e:	22 95       	swap	r18
    10a0:	26 95       	lsr	r18
    10a2:	26 95       	lsr	r18
    10a4:	23 70       	andi	r18, 0x03	; 3
    10a6:	1a 96       	adiw	r26, 0x0a	; 10
    10a8:	0c 91       	ld	r16, X
    10aa:	07 70       	andi	r16, 0x07	; 7
    10ac:	00 0f       	add	r16, r16
    10ae:	00 0f       	add	r16, r16
    10b0:	e0 2f       	mov	r30, r16
    10b2:	e2 2b       	or	r30, r18
    10b4:	0e 2f       	mov	r16, r30
    10b6:	10 e0       	ldi	r17, 0x00	; 0
    10b8:	f8 01       	movw	r30, r16
    10ba:	31 97       	sbiw	r30, 0x01	; 1
    10bc:	e2 31       	cpi	r30, 0x12	; 18
    10be:	f1 05       	cpc	r31, r1
    10c0:	18 f4       	brcc	.+6      	; 0x10c8 <lcdCursorGoTo+0x102>
    10c2:	e8 5a       	subi	r30, 0xA8	; 168
    10c4:	ff 4f       	sbci	r31, 0xFF	; 255
    10c6:	a2 c3       	rjmp	.+1860   	; 0x180c <__tablejump2__>
    10c8:	83 e0       	ldi	r24, 0x03	; 3
    10ca:	2b c0       	rjmp	.+86     	; 0x1122 <lcdCursorGoTo+0x15c>
    10cc:	2b e4       	ldi	r18, 0x4B	; 75
    10ce:	24 0f       	add	r18, r20
    10d0:	05 c0       	rjmp	.+10     	; 0x10dc <lcdCursorGoTo+0x116>
    10d2:	2f e4       	ldi	r18, 0x4F	; 79
    10d4:	24 0f       	add	r18, r20
    10d6:	02 c0       	rjmp	.+4      	; 0x10dc <lcdCursorGoTo+0x116>
    10d8:	23 e5       	ldi	r18, 0x53	; 83
    10da:	24 0f       	add	r18, r20
    10dc:	fc 01       	movw	r30, r24
    10de:	9f ef       	ldi	r25, 0xFF	; 255
    10e0:	96 0f       	add	r25, r22
    10e2:	93 70       	andi	r25, 0x03	; 3
    10e4:	83 85       	ldd	r24, Z+11	; 0x0b
    10e6:	90 fb       	bst	r25, 0
    10e8:	87 f9       	bld	r24, 7
    10ea:	83 87       	std	Z+11, r24	; 0x0b
    10ec:	96 95       	lsr	r25
    10ee:	84 85       	ldd	r24, Z+12	; 0x0c
    10f0:	8e 7f       	andi	r24, 0xFE	; 254
    10f2:	98 2b       	or	r25, r24
    10f4:	94 87       	std	Z+12, r25	; 0x0c
    10f6:	41 50       	subi	r20, 0x01	; 1
    10f8:	4f 73       	andi	r20, 0x3F	; 63
    10fa:	94 2f       	mov	r25, r20
    10fc:	99 0f       	add	r25, r25
    10fe:	43 85       	ldd	r20, Z+11	; 0x0b
    1100:	41 78       	andi	r20, 0x81	; 129
    1102:	49 2b       	or	r20, r25
    1104:	43 87       	std	Z+11, r20	; 0x0b
    1106:	62 2f       	mov	r22, r18
    1108:	60 68       	ori	r22, 0x80	; 128
    110a:	cf 01       	movw	r24, r30
    110c:	7f de       	rcall	.-770    	; 0xe0c <lcdWriteCommand>
    110e:	09 c0       	rjmp	.+18     	; 0x1122 <lcdCursorGoTo+0x15c>
    1110:	87 e0       	ldi	r24, 0x07	; 7
    1112:	07 c0       	rjmp	.+14     	; 0x1122 <lcdCursorGoTo+0x15c>
    1114:	83 e0       	ldi	r24, 0x03	; 3
    1116:	05 c0       	rjmp	.+10     	; 0x1122 <lcdCursorGoTo+0x15c>
    1118:	84 e0       	ldi	r24, 0x04	; 4
    111a:	03 c0       	rjmp	.+6      	; 0x1122 <lcdCursorGoTo+0x15c>
    111c:	84 e0       	ldi	r24, 0x04	; 4
    111e:	01 c0       	rjmp	.+2      	; 0x1122 <lcdCursorGoTo+0x15c>
    1120:	84 e0       	ldi	r24, 0x04	; 4
    1122:	1f 91       	pop	r17
    1124:	0f 91       	pop	r16
    1126:	08 95       	ret

00001128 <lcdCursorMoveNextLine>:
    1128:	dc 01       	movw	r26, r24
    112a:	1c 96       	adiw	r26, 0x0c	; 12
    112c:	8c 91       	ld	r24, X
    112e:	1c 97       	sbiw	r26, 0x0c	; 12
    1130:	83 ff       	sbrs	r24, 3
    1132:	5a c0       	rjmp	.+180    	; 0x11e8 <lcdCursorMoveNextLine+0xc0>
    1134:	19 96       	adiw	r26, 0x09	; 9
    1136:	ec 91       	ld	r30, X
    1138:	19 97       	sbiw	r26, 0x09	; 9
    113a:	9e 2f       	mov	r25, r30
    113c:	92 95       	swap	r25
    113e:	96 95       	lsr	r25
    1140:	96 95       	lsr	r25
    1142:	93 70       	andi	r25, 0x03	; 3
    1144:	1a 96       	adiw	r26, 0x0a	; 10
    1146:	4c 91       	ld	r20, X
    1148:	1a 97       	sbiw	r26, 0x0a	; 10
    114a:	47 70       	andi	r20, 0x07	; 7
    114c:	44 0f       	add	r20, r20
    114e:	44 0f       	add	r20, r20
    1150:	e4 2f       	mov	r30, r20
    1152:	e9 2b       	or	r30, r25
    1154:	4e 2f       	mov	r20, r30
    1156:	50 e0       	ldi	r21, 0x00	; 0
    1158:	fa 01       	movw	r30, r20
    115a:	31 97       	sbiw	r30, 0x01	; 1
    115c:	e2 31       	cpi	r30, 0x12	; 18
    115e:	f1 05       	cpc	r31, r1
    1160:	08 f0       	brcs	.+2      	; 0x1164 <lcdCursorMoveNextLine+0x3c>
    1162:	44 c0       	rjmp	.+136    	; 0x11ec <lcdCursorMoveNextLine+0xc4>
    1164:	e6 59       	subi	r30, 0x96	; 150
    1166:	ff 4f       	sbci	r31, 0xFF	; 255
    1168:	51 c3       	rjmp	.+1698   	; 0x180c <__tablejump2__>
    116a:	41 e0       	ldi	r20, 0x01	; 1
    116c:	61 e0       	ldi	r22, 0x01	; 1
    116e:	cd 01       	movw	r24, r26
    1170:	2a cf       	rjmp	.-428    	; 0xfc6 <lcdCursorGoTo>
    1172:	08 95       	ret
    1174:	1b 96       	adiw	r26, 0x0b	; 11
    1176:	8c 91       	ld	r24, X
    1178:	1b 97       	sbiw	r26, 0x0b	; 11
    117a:	98 2f       	mov	r25, r24
    117c:	99 1f       	adc	r25, r25
    117e:	99 27       	eor	r25, r25
    1180:	99 1f       	adc	r25, r25
    1182:	1c 96       	adiw	r26, 0x0c	; 12
    1184:	8c 91       	ld	r24, X
    1186:	1c 97       	sbiw	r26, 0x0c	; 12
    1188:	81 70       	andi	r24, 0x01	; 1
    118a:	88 0f       	add	r24, r24
    118c:	89 2b       	or	r24, r25
    118e:	61 e0       	ldi	r22, 0x01	; 1
    1190:	81 30       	cpi	r24, 0x01	; 1
    1192:	09 f4       	brne	.+2      	; 0x1196 <lcdCursorMoveNextLine+0x6e>
    1194:	60 e0       	ldi	r22, 0x00	; 0
    1196:	6f 5f       	subi	r22, 0xFF	; 255
    1198:	41 e0       	ldi	r20, 0x01	; 1
    119a:	cd 01       	movw	r24, r26
    119c:	14 cf       	rjmp	.-472    	; 0xfc6 <lcdCursorGoTo>
    119e:	08 95       	ret
    11a0:	1b 96       	adiw	r26, 0x0b	; 11
    11a2:	8c 91       	ld	r24, X
    11a4:	1b 97       	sbiw	r26, 0x0b	; 11
    11a6:	98 2f       	mov	r25, r24
    11a8:	99 1f       	adc	r25, r25
    11aa:	99 27       	eor	r25, r25
    11ac:	99 1f       	adc	r25, r25
    11ae:	1c 96       	adiw	r26, 0x0c	; 12
    11b0:	8c 91       	ld	r24, X
    11b2:	1c 97       	sbiw	r26, 0x0c	; 12
    11b4:	81 70       	andi	r24, 0x01	; 1
    11b6:	88 0f       	add	r24, r24
    11b8:	89 2b       	or	r24, r25
    11ba:	83 30       	cpi	r24, 0x03	; 3
    11bc:	79 f0       	breq	.+30     	; 0x11dc <lcdCursorMoveNextLine+0xb4>
    11be:	1b 96       	adiw	r26, 0x0b	; 11
    11c0:	6c 91       	ld	r22, X
    11c2:	1b 97       	sbiw	r26, 0x0b	; 11
    11c4:	86 2f       	mov	r24, r22
    11c6:	88 1f       	adc	r24, r24
    11c8:	88 27       	eor	r24, r24
    11ca:	88 1f       	adc	r24, r24
    11cc:	1c 96       	adiw	r26, 0x0c	; 12
    11ce:	6c 91       	ld	r22, X
    11d0:	1c 97       	sbiw	r26, 0x0c	; 12
    11d2:	61 70       	andi	r22, 0x01	; 1
    11d4:	66 0f       	add	r22, r22
    11d6:	68 2b       	or	r22, r24
    11d8:	6f 5f       	subi	r22, 0xFF	; 255
    11da:	01 c0       	rjmp	.+2      	; 0x11de <lcdCursorMoveNextLine+0xb6>
    11dc:	60 e0       	ldi	r22, 0x00	; 0
    11de:	6f 5f       	subi	r22, 0xFF	; 255
    11e0:	41 e0       	ldi	r20, 0x01	; 1
    11e2:	cd 01       	movw	r24, r26
    11e4:	f0 ce       	rjmp	.-544    	; 0xfc6 <lcdCursorGoTo>
    11e6:	08 95       	ret
    11e8:	87 e0       	ldi	r24, 0x07	; 7
    11ea:	08 95       	ret
    11ec:	83 e0       	ldi	r24, 0x03	; 3
    11ee:	08 95       	ret

000011f0 <lcdCursorMove>:
    11f0:	fc 01       	movw	r30, r24
    11f2:	24 85       	ldd	r18, Z+12	; 0x0c
    11f4:	23 ff       	sbrs	r18, 3
    11f6:	1e c0       	rjmp	.+60     	; 0x1234 <lcdCursorMove+0x44>
    11f8:	61 11       	cpse	r22, r1
    11fa:	0e c0       	rjmp	.+28     	; 0x1218 <lcdCursorMove+0x28>
    11fc:	83 85       	ldd	r24, Z+11	; 0x0b
    11fe:	86 95       	lsr	r24
    1200:	81 5c       	subi	r24, 0xC1	; 193
    1202:	8f 73       	andi	r24, 0x3F	; 63
    1204:	98 2f       	mov	r25, r24
    1206:	99 0f       	add	r25, r25
    1208:	83 85       	ldd	r24, Z+11	; 0x0b
    120a:	81 78       	andi	r24, 0x81	; 129
    120c:	89 2b       	or	r24, r25
    120e:	83 87       	std	Z+11, r24	; 0x0b
    1210:	60 e1       	ldi	r22, 0x10	; 16
    1212:	cf 01       	movw	r24, r30
    1214:	fb cd       	rjmp	.-1034   	; 0xe0c <lcdWriteCommand>
    1216:	08 95       	ret
    1218:	93 85       	ldd	r25, Z+11	; 0x0b
    121a:	96 95       	lsr	r25
    121c:	9f 5f       	subi	r25, 0xFF	; 255
    121e:	9f 73       	andi	r25, 0x3F	; 63
    1220:	29 2f       	mov	r18, r25
    1222:	22 0f       	add	r18, r18
    1224:	93 85       	ldd	r25, Z+11	; 0x0b
    1226:	91 78       	andi	r25, 0x81	; 129
    1228:	92 2b       	or	r25, r18
    122a:	93 87       	std	Z+11, r25	; 0x0b
    122c:	64 e1       	ldi	r22, 0x14	; 20
    122e:	cf 01       	movw	r24, r30
    1230:	ed cd       	rjmp	.-1062   	; 0xe0c <lcdWriteCommand>
    1232:	08 95       	ret
    1234:	87 e0       	ldi	r24, 0x07	; 7
    1236:	08 95       	ret

00001238 <lcdFunctionSet8Bits>:
 *				command		Command to be sent to LCD
 * Returns:		LCD_OK
 * -------------------------------------------------------------------------- */

lcdResult_t lcdFunctionSet8Bits(volatile lcdConfiguration_t * lcd, uint8 command)
{
    1238:	cf 93       	push	r28
    123a:	df 93       	push	r29
    123c:	fc 01       	movw	r30, r24
	clrBit(*(lcd->controlPORT), lcd->controlRS);		// LCD in command mode
    123e:	31 85       	ldd	r19, Z+9	; 0x09
    1240:	37 70       	andi	r19, 0x07	; 7
    1242:	a7 81       	ldd	r26, Z+7	; 0x07
    1244:	b0 85       	ldd	r27, Z+8	; 0x08
    1246:	4c 91       	ld	r20, X
    1248:	81 e0       	ldi	r24, 0x01	; 1
    124a:	90 e0       	ldi	r25, 0x00	; 0
    124c:	ec 01       	movw	r28, r24
    124e:	02 c0       	rjmp	.+4      	; 0x1254 <lcdFunctionSet8Bits+0x1c>
    1250:	cc 0f       	add	r28, r28
    1252:	dd 1f       	adc	r29, r29
    1254:	3a 95       	dec	r19
    1256:	e2 f7       	brpl	.-8      	; 0x1250 <lcdFunctionSet8Bits+0x18>
    1258:	9e 01       	movw	r18, r28
    125a:	20 95       	com	r18
    125c:	30 95       	com	r19
    125e:	24 23       	and	r18, r20
    1260:	2c 93       	st	X, r18
	clrBit(*(lcd->controlPORT), lcd->controlE);			// Makes sure enable is LOW
    1262:	31 85       	ldd	r19, Z+9	; 0x09
    1264:	36 95       	lsr	r19
    1266:	36 95       	lsr	r19
    1268:	36 95       	lsr	r19
    126a:	37 70       	andi	r19, 0x07	; 7
    126c:	a7 81       	ldd	r26, Z+7	; 0x07
    126e:	b0 85       	ldd	r27, Z+8	; 0x08
    1270:	4c 91       	ld	r20, X
    1272:	ec 01       	movw	r28, r24
    1274:	02 c0       	rjmp	.+4      	; 0x127a <lcdFunctionSet8Bits+0x42>
    1276:	cc 0f       	add	r28, r28
    1278:	dd 1f       	adc	r29, r29
    127a:	3a 95       	dec	r19
    127c:	e2 f7       	brpl	.-8      	; 0x1276 <lcdFunctionSet8Bits+0x3e>
    127e:	9e 01       	movw	r18, r28
    1280:	20 95       	com	r18
    1282:	30 95       	com	r19
    1284:	24 23       	and	r18, r20
    1286:	2c 93       	st	X, r18
	clrMask(*(lcd->dataPORT), 0x0F, lcd->dataFirst);	// Writes data
    1288:	44 81       	ldd	r20, Z+4	; 0x04
    128a:	47 70       	andi	r20, 0x07	; 7
    128c:	a2 81       	ldd	r26, Z+2	; 0x02
    128e:	b3 81       	ldd	r27, Z+3	; 0x03
    1290:	5c 91       	ld	r21, X
    1292:	2f e0       	ldi	r18, 0x0F	; 15
    1294:	30 e0       	ldi	r19, 0x00	; 0
    1296:	02 c0       	rjmp	.+4      	; 0x129c <lcdFunctionSet8Bits+0x64>
    1298:	22 0f       	add	r18, r18
    129a:	33 1f       	adc	r19, r19
    129c:	4a 95       	dec	r20
    129e:	e2 f7       	brpl	.-8      	; 0x1298 <lcdFunctionSet8Bits+0x60>
    12a0:	20 95       	com	r18
    12a2:	30 95       	com	r19
    12a4:	25 23       	and	r18, r21
    12a6:	2c 93       	st	X, r18
	*(lcd->dataPORT) |= ((command >> 4) << lcd->dataFirst);
    12a8:	34 81       	ldd	r19, Z+4	; 0x04
    12aa:	37 70       	andi	r19, 0x07	; 7
    12ac:	a2 81       	ldd	r26, Z+2	; 0x02
    12ae:	b3 81       	ldd	r27, Z+3	; 0x03
    12b0:	2c 91       	ld	r18, X
    12b2:	62 95       	swap	r22
    12b4:	6f 70       	andi	r22, 0x0F	; 15
    12b6:	01 c0       	rjmp	.+2      	; 0x12ba <lcdFunctionSet8Bits+0x82>
    12b8:	66 0f       	add	r22, r22
    12ba:	3a 95       	dec	r19
    12bc:	ea f7       	brpl	.-6      	; 0x12b8 <lcdFunctionSet8Bits+0x80>
    12be:	62 2b       	or	r22, r18
    12c0:	6c 93       	st	X, r22
	setBit(*(lcd->controlPORT), lcd->controlE);			// Enable pulse start
    12c2:	21 85       	ldd	r18, Z+9	; 0x09
    12c4:	26 95       	lsr	r18
    12c6:	26 95       	lsr	r18
    12c8:	26 95       	lsr	r18
    12ca:	27 70       	andi	r18, 0x07	; 7
    12cc:	a7 81       	ldd	r26, Z+7	; 0x07
    12ce:	b0 85       	ldd	r27, Z+8	; 0x08
    12d0:	4c 91       	ld	r20, X
    12d2:	bc 01       	movw	r22, r24
    12d4:	02 c0       	rjmp	.+4      	; 0x12da <lcdFunctionSet8Bits+0xa2>
    12d6:	66 0f       	add	r22, r22
    12d8:	77 1f       	adc	r23, r23
    12da:	2a 95       	dec	r18
    12dc:	e2 f7       	brpl	.-8      	; 0x12d6 <lcdFunctionSet8Bits+0x9e>
    12de:	9b 01       	movw	r18, r22
    12e0:	24 2b       	or	r18, r20
    12e2:	2c 93       	st	X, r18
	#else
		//round up by default
		__ticks_dc = (uint32_t)(ceil(fabs(__tmp)));
	#endif

	__builtin_avr_delay_cycles(__ticks_dc);
    12e4:	75 e0       	ldi	r23, 0x05	; 5
    12e6:	7a 95       	dec	r23
    12e8:	f1 f7       	brne	.-4      	; 0x12e6 <lcdFunctionSet8Bits+0xae>
    12ea:	00 00       	nop
	_delay_us(1);
	clrBit(*(lcd->controlPORT), lcd->controlE);			// Enable pulse end
    12ec:	21 85       	ldd	r18, Z+9	; 0x09
    12ee:	26 95       	lsr	r18
    12f0:	26 95       	lsr	r18
    12f2:	26 95       	lsr	r18
    12f4:	27 70       	andi	r18, 0x07	; 7
    12f6:	07 80       	ldd	r0, Z+7	; 0x07
    12f8:	f0 85       	ldd	r31, Z+8	; 0x08
    12fa:	e0 2d       	mov	r30, r0
    12fc:	30 81       	ld	r19, Z
    12fe:	02 c0       	rjmp	.+4      	; 0x1304 <lcdFunctionSet8Bits+0xcc>
    1300:	88 0f       	add	r24, r24
    1302:	99 1f       	adc	r25, r25
    1304:	2a 95       	dec	r18
    1306:	e2 f7       	brpl	.-8      	; 0x1300 <lcdFunctionSet8Bits+0xc8>
    1308:	80 95       	com	r24
    130a:	90 95       	com	r25
    130c:	83 23       	and	r24, r19
    130e:	80 83       	st	Z, r24
    1310:	85 ed       	ldi	r24, 0xD5	; 213
    1312:	8a 95       	dec	r24
    1314:	f1 f7       	brne	.-4      	; 0x1312 <lcdFunctionSet8Bits+0xda>
    1316:	00 00       	nop
	_delay_us(40);

	return LCD_OK;
}
    1318:	80 e0       	ldi	r24, 0x00	; 0
    131a:	df 91       	pop	r29
    131c:	cf 91       	pop	r28
    131e:	08 95       	ret

00001320 <lcdInit>:
 *				LCD_CONTROL_PORT_NOT_CONFIGURED
 *				LCD_OK
 * -------------------------------------------------------------------------- */

lcdResult_t lcdInit(volatile lcdConfiguration_t * lcd, lcdSize_t size, lcdFont_t font)
{
    1320:	0f 93       	push	r16
    1322:	1f 93       	push	r17
    1324:	cf 93       	push	r28
    1326:	df 93       	push	r29
    1328:	dc 01       	movw	r26, r24
	uint8 command = 0;
	uint8 lines = 0;

	// LCD font
	switch(font){
    132a:	44 23       	and	r20, r20
    132c:	19 f0       	breq	.+6      	; 0x1334 <lcdInit+0x14>
    132e:	41 30       	cpi	r20, 0x01	; 1
    1330:	49 f0       	breq	.+18     	; 0x1344 <lcdInit+0x24>
    1332:	32 c1       	rjmp	.+612    	; 0x1598 <lcdInit+0x278>
		case LCD_FONT_5X8:	lcd->functionFontSize = LCD_FONT_5X8;	break;
    1334:	1a 96       	adiw	r26, 0x0a	; 10
    1336:	8c 91       	ld	r24, X
    1338:	1a 97       	sbiw	r26, 0x0a	; 10
    133a:	87 7f       	andi	r24, 0xF7	; 247
    133c:	1a 96       	adiw	r26, 0x0a	; 10
    133e:	8c 93       	st	X, r24
    1340:	1a 97       	sbiw	r26, 0x0a	; 10
    1342:	07 c0       	rjmp	.+14     	; 0x1352 <lcdInit+0x32>
		case LCD_FONT_5X10:	lcd->functionFontSize = LCD_FONT_5X10;	break;
    1344:	1a 96       	adiw	r26, 0x0a	; 10
    1346:	8c 91       	ld	r24, X
    1348:	1a 97       	sbiw	r26, 0x0a	; 10
    134a:	88 60       	ori	r24, 0x08	; 8
    134c:	1a 96       	adiw	r26, 0x0a	; 10
    134e:	8c 93       	st	X, r24
    1350:	1a 97       	sbiw	r26, 0x0a	; 10
		default:			return LCD_UNSUPPORTED_FONT_SIZE;
	}

	// LCD size
	switch(size){
    1352:	06 2f       	mov	r16, r22
    1354:	10 e0       	ldi	r17, 0x00	; 0
    1356:	f8 01       	movw	r30, r16
    1358:	31 97       	sbiw	r30, 0x01	; 1
    135a:	e2 31       	cpi	r30, 0x12	; 18
    135c:	f1 05       	cpc	r31, r1
    135e:	08 f0       	brcs	.+2      	; 0x1362 <lcdInit+0x42>
    1360:	1d c1       	rjmp	.+570    	; 0x159c <lcdInit+0x27c>
    1362:	e4 58       	subi	r30, 0x84	; 132
    1364:	ff 4f       	sbci	r31, 0xFF	; 255
    1366:	52 c2       	rjmp	.+1188   	; 0x180c <__tablejump2__>
	case LCD_16X1b:
	case LCD_20X1:
	case LCD_24X1:
	case LCD_40X1:
		lines = 1;
		lcd->size = size;
    1368:	86 2f       	mov	r24, r22
    136a:	8f 71       	andi	r24, 0x1F	; 31
    136c:	62 95       	swap	r22
    136e:	66 0f       	add	r22, r22
    1370:	66 0f       	add	r22, r22
    1372:	60 7c       	andi	r22, 0xC0	; 192
    1374:	19 96       	adiw	r26, 0x09	; 9
    1376:	9c 91       	ld	r25, X
    1378:	19 97       	sbiw	r26, 0x09	; 9
    137a:	9f 73       	andi	r25, 0x3F	; 63
    137c:	69 2b       	or	r22, r25
    137e:	19 96       	adiw	r26, 0x09	; 9
    1380:	6c 93       	st	X, r22
    1382:	19 97       	sbiw	r26, 0x09	; 9
    1384:	98 2f       	mov	r25, r24
    1386:	96 95       	lsr	r25
    1388:	96 95       	lsr	r25
    138a:	1a 96       	adiw	r26, 0x0a	; 10
    138c:	8c 91       	ld	r24, X
    138e:	1a 97       	sbiw	r26, 0x0a	; 10
    1390:	88 7f       	andi	r24, 0xF8	; 248
    1392:	89 2b       	or	r24, r25
    1394:	1a 96       	adiw	r26, 0x0a	; 10
    1396:	8c 93       	st	X, r24
    1398:	1a 97       	sbiw	r26, 0x0a	; 10
	case LCD_8X1:
	case LCD_16X1b:
	case LCD_20X1:
	case LCD_24X1:
	case LCD_40X1:
		lines = 1;
    139a:	11 e0       	ldi	r17, 0x01	; 1
		lcd->size = size;
		break;
    139c:	35 c0       	rjmp	.+106    	; 0x1408 <lcdInit+0xe8>
	case LCD_24X2:
	case LCD_30X2:
	case LCD_32X2:
	case LCD_40X2:
		lines = 2;
		lcd->size = size;
    139e:	86 2f       	mov	r24, r22
    13a0:	8f 71       	andi	r24, 0x1F	; 31
    13a2:	62 95       	swap	r22
    13a4:	66 0f       	add	r22, r22
    13a6:	66 0f       	add	r22, r22
    13a8:	60 7c       	andi	r22, 0xC0	; 192
    13aa:	19 96       	adiw	r26, 0x09	; 9
    13ac:	9c 91       	ld	r25, X
    13ae:	19 97       	sbiw	r26, 0x09	; 9
    13b0:	9f 73       	andi	r25, 0x3F	; 63
    13b2:	69 2b       	or	r22, r25
    13b4:	19 96       	adiw	r26, 0x09	; 9
    13b6:	6c 93       	st	X, r22
    13b8:	19 97       	sbiw	r26, 0x09	; 9
    13ba:	98 2f       	mov	r25, r24
    13bc:	96 95       	lsr	r25
    13be:	96 95       	lsr	r25
    13c0:	1a 96       	adiw	r26, 0x0a	; 10
    13c2:	8c 91       	ld	r24, X
    13c4:	1a 97       	sbiw	r26, 0x0a	; 10
    13c6:	88 7f       	andi	r24, 0xF8	; 248
    13c8:	89 2b       	or	r24, r25
    13ca:	1a 96       	adiw	r26, 0x0a	; 10
    13cc:	8c 93       	st	X, r24
    13ce:	1a 97       	sbiw	r26, 0x0a	; 10
	case LCD_20X2:
	case LCD_24X2:
	case LCD_30X2:
	case LCD_32X2:
	case LCD_40X2:
		lines = 2;
    13d0:	12 e0       	ldi	r17, 0x02	; 2
		lcd->size = size;
		break;
    13d2:	1a c0       	rjmp	.+52     	; 0x1408 <lcdInit+0xe8>
	case LCD_12X4:
	case LCD_16X4:
	case LCD_20X4:
		lines = 4;
		lcd->size = size;
    13d4:	86 2f       	mov	r24, r22
    13d6:	8f 71       	andi	r24, 0x1F	; 31
    13d8:	62 95       	swap	r22
    13da:	66 0f       	add	r22, r22
    13dc:	66 0f       	add	r22, r22
    13de:	60 7c       	andi	r22, 0xC0	; 192
    13e0:	19 96       	adiw	r26, 0x09	; 9
    13e2:	9c 91       	ld	r25, X
    13e4:	19 97       	sbiw	r26, 0x09	; 9
    13e6:	9f 73       	andi	r25, 0x3F	; 63
    13e8:	69 2b       	or	r22, r25
    13ea:	19 96       	adiw	r26, 0x09	; 9
    13ec:	6c 93       	st	X, r22
    13ee:	19 97       	sbiw	r26, 0x09	; 9
    13f0:	98 2f       	mov	r25, r24
    13f2:	96 95       	lsr	r25
    13f4:	96 95       	lsr	r25
    13f6:	1a 96       	adiw	r26, 0x0a	; 10
    13f8:	8c 91       	ld	r24, X
    13fa:	1a 97       	sbiw	r26, 0x0a	; 10
    13fc:	88 7f       	andi	r24, 0xF8	; 248
    13fe:	89 2b       	or	r24, r25
    1400:	1a 96       	adiw	r26, 0x0a	; 10
    1402:	8c 93       	st	X, r24
    1404:	1a 97       	sbiw	r26, 0x0a	; 10
		lcd->size = size;
		break;
	case LCD_12X4:
	case LCD_16X4:
	case LCD_20X4:
		lines = 4;
    1406:	14 e0       	ldi	r17, 0x04	; 4
	default:
		return LCD_UNSUPPORTED_DISPLAY_SIZE;
	}

	// I/O initialization
	if(lcd->dataPortConfigured == FALSE)
    1408:	1c 96       	adiw	r26, 0x0c	; 12
    140a:	8c 91       	ld	r24, X
    140c:	1c 97       	sbiw	r26, 0x0c	; 12
    140e:	81 ff       	sbrs	r24, 1
    1410:	c7 c0       	rjmp	.+398    	; 0x15a0 <lcdInit+0x280>
		return LCD_DATA_PORT_NOT_CONFIGURED;
	if(lcd->controlPortConfigured == FALSE)
    1412:	1c 96       	adiw	r26, 0x0c	; 12
    1414:	8c 91       	ld	r24, X
    1416:	1c 97       	sbiw	r26, 0x0c	; 12
    1418:	82 ff       	sbrs	r24, 2
    141a:	c4 c0       	rjmp	.+392    	; 0x15a4 <lcdInit+0x284>
    141c:	ed 01       	movw	r28, r26
		return LCD_CONTROL_PORT_NOT_CONFIGURED;
	clrMask(*(lcd->dataPORT), 0x0F, lcd->dataFirst);
    141e:	3c 81       	ldd	r19, Y+4	; 0x04
    1420:	37 70       	andi	r19, 0x07	; 7
    1422:	ea 81       	ldd	r30, Y+2	; 0x02
    1424:	fb 81       	ldd	r31, Y+3	; 0x03
    1426:	40 81       	ld	r20, Z
    1428:	8f e0       	ldi	r24, 0x0F	; 15
    142a:	90 e0       	ldi	r25, 0x00	; 0
    142c:	bc 01       	movw	r22, r24
    142e:	02 c0       	rjmp	.+4      	; 0x1434 <lcdInit+0x114>
    1430:	66 0f       	add	r22, r22
    1432:	77 1f       	adc	r23, r23
    1434:	3a 95       	dec	r19
    1436:	e2 f7       	brpl	.-8      	; 0x1430 <lcdInit+0x110>
    1438:	9b 01       	movw	r18, r22
    143a:	20 95       	com	r18
    143c:	30 95       	com	r19
    143e:	24 23       	and	r18, r20
    1440:	20 83       	st	Z, r18
	setMask(*(lcd->dataDDR), 0x0F, lcd->dataFirst);
    1442:	2c 81       	ldd	r18, Y+4	; 0x04
    1444:	27 70       	andi	r18, 0x07	; 7
    1446:	e8 81       	ld	r30, Y
    1448:	f9 81       	ldd	r31, Y+1	; 0x01
    144a:	30 81       	ld	r19, Z
    144c:	02 c0       	rjmp	.+4      	; 0x1452 <lcdInit+0x132>
    144e:	88 0f       	add	r24, r24
    1450:	99 1f       	adc	r25, r25
    1452:	2a 95       	dec	r18
    1454:	e2 f7       	brpl	.-8      	; 0x144e <lcdInit+0x12e>
    1456:	83 2b       	or	r24, r19
    1458:	80 83       	st	Z, r24
	clrBit(*(lcd->controlPORT), lcd->controlE);
    145a:	39 85       	ldd	r19, Y+9	; 0x09
    145c:	36 95       	lsr	r19
    145e:	36 95       	lsr	r19
    1460:	36 95       	lsr	r19
    1462:	37 70       	andi	r19, 0x07	; 7
    1464:	ef 81       	ldd	r30, Y+7	; 0x07
    1466:	f8 85       	ldd	r31, Y+8	; 0x08
    1468:	40 81       	ld	r20, Z
    146a:	81 e0       	ldi	r24, 0x01	; 1
    146c:	90 e0       	ldi	r25, 0x00	; 0
    146e:	bc 01       	movw	r22, r24
    1470:	02 c0       	rjmp	.+4      	; 0x1476 <lcdInit+0x156>
    1472:	66 0f       	add	r22, r22
    1474:	77 1f       	adc	r23, r23
    1476:	3a 95       	dec	r19
    1478:	e2 f7       	brpl	.-8      	; 0x1472 <lcdInit+0x152>
    147a:	9b 01       	movw	r18, r22
    147c:	20 95       	com	r18
    147e:	30 95       	com	r19
    1480:	24 23       	and	r18, r20
    1482:	20 83       	st	Z, r18
	setBit(*(lcd->controlDDR), lcd->controlE);
    1484:	29 85       	ldd	r18, Y+9	; 0x09
    1486:	26 95       	lsr	r18
    1488:	26 95       	lsr	r18
    148a:	26 95       	lsr	r18
    148c:	27 70       	andi	r18, 0x07	; 7
    148e:	ed 81       	ldd	r30, Y+5	; 0x05
    1490:	fe 81       	ldd	r31, Y+6	; 0x06
    1492:	40 81       	ld	r20, Z
    1494:	bc 01       	movw	r22, r24
    1496:	02 c0       	rjmp	.+4      	; 0x149c <lcdInit+0x17c>
    1498:	66 0f       	add	r22, r22
    149a:	77 1f       	adc	r23, r23
    149c:	2a 95       	dec	r18
    149e:	e2 f7       	brpl	.-8      	; 0x1498 <lcdInit+0x178>
    14a0:	9b 01       	movw	r18, r22
    14a2:	24 2b       	or	r18, r20
    14a4:	20 83       	st	Z, r18
	clrBit(*(lcd->controlPORT), lcd->controlRS);
    14a6:	39 85       	ldd	r19, Y+9	; 0x09
    14a8:	37 70       	andi	r19, 0x07	; 7
    14aa:	ef 81       	ldd	r30, Y+7	; 0x07
    14ac:	f8 85       	ldd	r31, Y+8	; 0x08
    14ae:	40 81       	ld	r20, Z
    14b0:	bc 01       	movw	r22, r24
    14b2:	02 c0       	rjmp	.+4      	; 0x14b8 <lcdInit+0x198>
    14b4:	66 0f       	add	r22, r22
    14b6:	77 1f       	adc	r23, r23
    14b8:	3a 95       	dec	r19
    14ba:	e2 f7       	brpl	.-8      	; 0x14b4 <lcdInit+0x194>
    14bc:	9b 01       	movw	r18, r22
    14be:	20 95       	com	r18
    14c0:	30 95       	com	r19
    14c2:	24 23       	and	r18, r20
    14c4:	20 83       	st	Z, r18
	setBit(*(lcd->controlDDR), lcd->controlRS);
    14c6:	29 85       	ldd	r18, Y+9	; 0x09
    14c8:	27 70       	andi	r18, 0x07	; 7
    14ca:	ed 81       	ldd	r30, Y+5	; 0x05
    14cc:	fe 81       	ldd	r31, Y+6	; 0x06
    14ce:	30 81       	ld	r19, Z
    14d0:	02 c0       	rjmp	.+4      	; 0x14d6 <lcdInit+0x1b6>
    14d2:	88 0f       	add	r24, r24
    14d4:	99 1f       	adc	r25, r25
    14d6:	2a 95       	dec	r18
    14d8:	e2 f7       	brpl	.-8      	; 0x14d2 <lcdInit+0x1b2>
    14da:	83 2b       	or	r24, r19
    14dc:	80 83       	st	Z, r24
	#else
		//round up by default
		__ticks_dc = (uint32_t)(ceil(fabs(__tmp)));
	#endif

	__builtin_avr_delay_cycles(__ticks_dc);
    14de:	8f e5       	ldi	r24, 0x5F	; 95
    14e0:	9a ee       	ldi	r25, 0xEA	; 234
    14e2:	01 97       	sbiw	r24, 0x01	; 1
    14e4:	f1 f7       	brne	.-4      	; 0x14e2 <lcdInit+0x1c2>
    14e6:	00 c0       	rjmp	.+0      	; 0x14e8 <lcdInit+0x1c8>
    14e8:	00 00       	nop

	// Reset the controller, must be sent 3 times
	_delay_ms(15);
	lcdFunctionSet8Bits(lcd, LCD_FUNCTION_RESET);
    14ea:	60 e3       	ldi	r22, 0x30	; 48
    14ec:	cd 01       	movw	r24, r26
    14ee:	a4 de       	rcall	.-696    	; 0x1238 <lcdFunctionSet8Bits>
    14f0:	8f e1       	ldi	r24, 0x1F	; 31
    14f2:	9e e4       	ldi	r25, 0x4E	; 78
    14f4:	01 97       	sbiw	r24, 0x01	; 1
    14f6:	f1 f7       	brne	.-4      	; 0x14f4 <lcdInit+0x1d4>
    14f8:	00 c0       	rjmp	.+0      	; 0x14fa <lcdInit+0x1da>
    14fa:	00 00       	nop
	_delay_ms(5);
	lcdFunctionSet8Bits(lcd, LCD_FUNCTION_RESET);
    14fc:	60 e3       	ldi	r22, 0x30	; 48
    14fe:	ce 01       	movw	r24, r28
    1500:	9b de       	rcall	.-714    	; 0x1238 <lcdFunctionSet8Bits>
	#else
		//round up by default
		__ticks_dc = (uint32_t)(ceil(fabs(__tmp)));
	#endif

	__builtin_avr_delay_cycles(__ticks_dc);
    1502:	8f ee       	ldi	r24, 0xEF	; 239
    1504:	90 e0       	ldi	r25, 0x00	; 0
    1506:	01 97       	sbiw	r24, 0x01	; 1
    1508:	f1 f7       	brne	.-4      	; 0x1506 <lcdInit+0x1e6>
    150a:	00 c0       	rjmp	.+0      	; 0x150c <lcdInit+0x1ec>
	_delay_us(60);
	lcdFunctionSet8Bits(lcd, LCD_FUNCTION_RESET);
    150c:	00 00       	nop
    150e:	60 e3       	ldi	r22, 0x30	; 48
    1510:	ce 01       	movw	r24, r28
    1512:	92 de       	rcall	.-732    	; 0x1238 <lcdFunctionSet8Bits>
    1514:	8f ee       	ldi	r24, 0xEF	; 239
    1516:	90 e0       	ldi	r25, 0x00	; 0
    1518:	01 97       	sbiw	r24, 0x01	; 1
    151a:	f1 f7       	brne	.-4      	; 0x1518 <lcdInit+0x1f8>
    151c:	00 c0       	rjmp	.+0      	; 0x151e <lcdInit+0x1fe>
	_delay_us(60);

	// Configures the LCD to 4 bits interface
	lcdFunctionSet8Bits(lcd, LCD_FUNCTION_SET | LCD_FUNCTION_4_BITS);
    151e:	00 00       	nop
    1520:	60 e2       	ldi	r22, 0x20	; 32
    1522:	ce 01       	movw	r24, r28
    1524:	89 de       	rcall	.-750    	; 0x1238 <lcdFunctionSet8Bits>

	// Function set
	command = LCD_FUNCTION_SET | LCD_FUNCTION_4_BITS;
	if(lcd->functionFontSize == LCD_FONT_5X8)
    1526:	8a 85       	ldd	r24, Y+10	; 0x0a
		command |= LCD_FUNCTION_5x8_FONT;
	if(lcd->functionFontSize == LCD_FONT_5X10)
    1528:	8a 85       	ldd	r24, Y+10	; 0x0a
    152a:	83 ff       	sbrs	r24, 3
    152c:	02 c0       	rjmp	.+4      	; 0x1532 <lcdInit+0x212>
		command |= LCD_FUNCTION_5x10_FONT;
    152e:	64 e2       	ldi	r22, 0x24	; 36
    1530:	01 c0       	rjmp	.+2      	; 0x1534 <lcdInit+0x214>
    1532:	60 e2       	ldi	r22, 0x20	; 32
	if(lines == 1)
		command |= LCD_FUNCTION_1_LINE;
	if((lines == 2) || (lines == 4))
    1534:	12 30       	cpi	r17, 0x02	; 2
    1536:	11 f0       	breq	.+4      	; 0x153c <lcdInit+0x21c>
    1538:	14 30       	cpi	r17, 0x04	; 4
		command |= LCD_FUNCTION_2_LINES;
	lcdWriteCommand(lcd, command);
    153a:	09 f4       	brne	.+2      	; 0x153e <lcdInit+0x21e>
    153c:	68 60       	ori	r22, 0x08	; 8

	// Turns display off
	lcdWriteCommand(lcd, LCD_DISPLAY_OFF);
    153e:	ce 01       	movw	r24, r28
    1540:	65 dc       	rcall	.-1846   	; 0xe0c <lcdWriteCommand>
    1542:	68 e0       	ldi	r22, 0x08	; 8
    1544:	ce 01       	movw	r24, r28

	// Clears the screen
	lcdWriteCommand(lcd, LCD_CLEAR_SCREEN);
    1546:	62 dc       	rcall	.-1852   	; 0xe0c <lcdWriteCommand>
    1548:	61 e0       	ldi	r22, 0x01	; 1
    154a:	ce 01       	movw	r24, r28
    154c:	5f dc       	rcall	.-1858   	; 0xe0c <lcdWriteCommand>

	// Entry set
	command = LCD_ENTRY_SET;
	if(lcd->entryIncDec == LCD_INCREMENT)
    154e:	8a 85       	ldd	r24, Y+10	; 0x0a
    1550:	84 fd       	sbrc	r24, 4
		command |= LCD_ENTRY_INCREMENT;
	else
		command |= LCD_ENTRY_DECREMENT;
    1552:	02 c0       	rjmp	.+4      	; 0x1558 <lcdInit+0x238>
    1554:	64 e0       	ldi	r22, 0x04	; 4
	if(lcd->entryShiftDisplay == LCD_DISPLAY_SHIFT)
    1556:	01 c0       	rjmp	.+2      	; 0x155a <lcdInit+0x23a>
    1558:	66 e0       	ldi	r22, 0x06	; 6
		command |= LCD_ENTRY_SHIFT;
    155a:	8a 85       	ldd	r24, Y+10	; 0x0a
	else
		command |= LCD_ENTRY_OVERWRITE;
	lcdWriteCommand(lcd, command);
    155c:	85 fd       	sbrc	r24, 5
    155e:	61 60       	ori	r22, 0x01	; 1
    1560:	ce 01       	movw	r24, r28

	// Turns display on
	lcdWriteCommand(lcd, LCD_DISPLAY_ON);
    1562:	54 dc       	rcall	.-1880   	; 0xe0c <lcdWriteCommand>
    1564:	6c e0       	ldi	r22, 0x0C	; 12
    1566:	ce 01       	movw	r24, r28
    1568:	51 dc       	rcall	.-1886   	; 0xe0c <lcdWriteCommand>

	// Updates the struct variables
	lcd->initialized = TRUE;
    156a:	8c 85       	ldd	r24, Y+12	; 0x0c
    156c:	88 60       	ori	r24, 0x08	; 8
    156e:	8c 87       	std	Y+12, r24	; 0x0c
	lcd->displayOn = TRUE;
    1570:	8a 85       	ldd	r24, Y+10	; 0x0a
    1572:	80 64       	ori	r24, 0x40	; 64
    1574:	8a 87       	std	Y+10, r24	; 0x0a
	lcd->cursorOn = FALSE;
    1576:	8a 85       	ldd	r24, Y+10	; 0x0a
    1578:	8f 77       	andi	r24, 0x7F	; 127
    157a:	8a 87       	std	Y+10, r24	; 0x0a
	lcd->cursorBlink = FALSE;
    157c:	8b 85       	ldd	r24, Y+11	; 0x0b
    157e:	8e 7f       	andi	r24, 0xFE	; 254
    1580:	8b 87       	std	Y+11, r24	; 0x0b
	lcd->cursorLine = 0;
    1582:	8b 85       	ldd	r24, Y+11	; 0x0b
    1584:	8f 77       	andi	r24, 0x7F	; 127
    1586:	8b 87       	std	Y+11, r24	; 0x0b
    1588:	8c 85       	ldd	r24, Y+12	; 0x0c
    158a:	8e 7f       	andi	r24, 0xFE	; 254
    158c:	8c 87       	std	Y+12, r24	; 0x0c
	lcd->cursorColumn = 0;
    158e:	8b 85       	ldd	r24, Y+11	; 0x0b
    1590:	81 78       	andi	r24, 0x81	; 129
    1592:	8b 87       	std	Y+11, r24	; 0x0b

	return LCD_OK;
    1594:	80 e0       	ldi	r24, 0x00	; 0
    1596:	07 c0       	rjmp	.+14     	; 0x15a6 <lcdInit+0x286>

	// LCD font
	switch(font){
		case LCD_FONT_5X8:	lcd->functionFontSize = LCD_FONT_5X8;	break;
		case LCD_FONT_5X10:	lcd->functionFontSize = LCD_FONT_5X10;	break;
		default:			return LCD_UNSUPPORTED_FONT_SIZE;
    1598:	81 e0       	ldi	r24, 0x01	; 1
    159a:	05 c0       	rjmp	.+10     	; 0x15a6 <lcdInit+0x286>
	case LCD_20X4:
		lines = 4;
		lcd->size = size;
		break;
	default:
		return LCD_UNSUPPORTED_DISPLAY_SIZE;
    159c:	83 e0       	ldi	r24, 0x03	; 3
    159e:	03 c0       	rjmp	.+6      	; 0x15a6 <lcdInit+0x286>
	}

	// I/O initialization
	if(lcd->dataPortConfigured == FALSE)
		return LCD_DATA_PORT_NOT_CONFIGURED;
    15a0:	85 e0       	ldi	r24, 0x05	; 5
    15a2:	01 c0       	rjmp	.+2      	; 0x15a6 <lcdInit+0x286>
	if(lcd->controlPortConfigured == FALSE)
		return LCD_CONTROL_PORT_NOT_CONFIGURED;
    15a4:	86 e0       	ldi	r24, 0x06	; 6
	lcd->cursorBlink = FALSE;
	lcd->cursorLine = 0;
	lcd->cursorColumn = 0;

	return LCD_OK;
}
    15a6:	df 91       	pop	r29
    15a8:	cf 91       	pop	r28
    15aa:	1f 91       	pop	r17
    15ac:	0f 91       	pop	r16
    15ae:	08 95       	ret

000015b0 <lcdWriteCharacter>:
 * Returns:		LCD_NOT_INITIALIZED
 *				LCD_OK
 * -------------------------------------------------------------------------- */

lcdResult_t lcdWriteCharacter(volatile lcdConfiguration_t * lcd, uint8 character)
{
    15b0:	cf 93       	push	r28
    15b2:	df 93       	push	r29
    15b4:	fc 01       	movw	r30, r24
	if(lcd->initialized == FALSE)
    15b6:	84 85       	ldd	r24, Z+12	; 0x0c
    15b8:	83 ff       	sbrs	r24, 3
    15ba:	c6 c0       	rjmp	.+396    	; 0x1748 <lcdWriteCharacter+0x198>
		return LCD_NOT_INITIALIZED;

	if(lcd->cursorColumn < 40){
    15bc:	83 85       	ldd	r24, Z+11	; 0x0b
    15be:	86 95       	lsr	r24
    15c0:	8f 73       	andi	r24, 0x3F	; 63
    15c2:	90 e0       	ldi	r25, 0x00	; 0
    15c4:	88 97       	sbiw	r24, 0x28	; 40
    15c6:	0c f0       	brlt	.+2      	; 0x15ca <lcdWriteCharacter+0x1a>
    15c8:	c1 c0       	rjmp	.+386    	; 0x174c <lcdWriteCharacter+0x19c>
		setBit(*(lcd->controlPORT), lcd->controlRS);		// LCD in command mode
    15ca:	31 85       	ldd	r19, Z+9	; 0x09
    15cc:	37 70       	andi	r19, 0x07	; 7
    15ce:	a7 81       	ldd	r26, Z+7	; 0x07
    15d0:	b0 85       	ldd	r27, Z+8	; 0x08
    15d2:	4c 91       	ld	r20, X
    15d4:	81 e0       	ldi	r24, 0x01	; 1
    15d6:	90 e0       	ldi	r25, 0x00	; 0
    15d8:	ec 01       	movw	r28, r24
    15da:	02 c0       	rjmp	.+4      	; 0x15e0 <lcdWriteCharacter+0x30>
    15dc:	cc 0f       	add	r28, r28
    15de:	dd 1f       	adc	r29, r29
    15e0:	3a 95       	dec	r19
    15e2:	e2 f7       	brpl	.-8      	; 0x15dc <lcdWriteCharacter+0x2c>
    15e4:	9e 01       	movw	r18, r28
    15e6:	24 2b       	or	r18, r20
    15e8:	2c 93       	st	X, r18
		clrBit(*(lcd->controlPORT), lcd->controlE);			// Makes sure enable is LOW
    15ea:	31 85       	ldd	r19, Z+9	; 0x09
    15ec:	36 95       	lsr	r19
    15ee:	36 95       	lsr	r19
    15f0:	36 95       	lsr	r19
    15f2:	37 70       	andi	r19, 0x07	; 7
    15f4:	a7 81       	ldd	r26, Z+7	; 0x07
    15f6:	b0 85       	ldd	r27, Z+8	; 0x08
    15f8:	4c 91       	ld	r20, X
    15fa:	ec 01       	movw	r28, r24
    15fc:	02 c0       	rjmp	.+4      	; 0x1602 <lcdWriteCharacter+0x52>
    15fe:	cc 0f       	add	r28, r28
    1600:	dd 1f       	adc	r29, r29
    1602:	3a 95       	dec	r19
    1604:	e2 f7       	brpl	.-8      	; 0x15fe <lcdWriteCharacter+0x4e>
    1606:	9e 01       	movw	r18, r28
    1608:	20 95       	com	r18
    160a:	30 95       	com	r19
    160c:	24 23       	and	r18, r20
    160e:	2c 93       	st	X, r18
		clrMask(*(lcd->dataPORT), 0x0F, lcd->dataFirst);	// Writes data (higher nibble)
    1610:	54 81       	ldd	r21, Z+4	; 0x04
    1612:	57 70       	andi	r21, 0x07	; 7
    1614:	a2 81       	ldd	r26, Z+2	; 0x02
    1616:	b3 81       	ldd	r27, Z+3	; 0x03
    1618:	7c 91       	ld	r23, X
    161a:	2f e0       	ldi	r18, 0x0F	; 15
    161c:	30 e0       	ldi	r19, 0x00	; 0
    161e:	e9 01       	movw	r28, r18
    1620:	02 c0       	rjmp	.+4      	; 0x1626 <lcdWriteCharacter+0x76>
    1622:	cc 0f       	add	r28, r28
    1624:	dd 1f       	adc	r29, r29
    1626:	5a 95       	dec	r21
    1628:	e2 f7       	brpl	.-8      	; 0x1622 <lcdWriteCharacter+0x72>
    162a:	ae 01       	movw	r20, r28
    162c:	40 95       	com	r20
    162e:	50 95       	com	r21
    1630:	47 23       	and	r20, r23
    1632:	4c 93       	st	X, r20
		*(lcd->dataPORT) |= ((character >> 4) << lcd->dataFirst);
    1634:	74 81       	ldd	r23, Z+4	; 0x04
    1636:	77 70       	andi	r23, 0x07	; 7
    1638:	a2 81       	ldd	r26, Z+2	; 0x02
    163a:	b3 81       	ldd	r27, Z+3	; 0x03
    163c:	5c 91       	ld	r21, X
    163e:	46 2f       	mov	r20, r22
    1640:	42 95       	swap	r20
    1642:	4f 70       	andi	r20, 0x0F	; 15
    1644:	01 c0       	rjmp	.+2      	; 0x1648 <lcdWriteCharacter+0x98>
    1646:	44 0f       	add	r20, r20
    1648:	7a 95       	dec	r23
    164a:	ea f7       	brpl	.-6      	; 0x1646 <lcdWriteCharacter+0x96>
    164c:	45 2b       	or	r20, r21
    164e:	4c 93       	st	X, r20
		setBit(*(lcd->controlPORT), lcd->controlE);			// Enable pulse start
    1650:	41 85       	ldd	r20, Z+9	; 0x09
    1652:	46 95       	lsr	r20
    1654:	46 95       	lsr	r20
    1656:	46 95       	lsr	r20
    1658:	47 70       	andi	r20, 0x07	; 7
    165a:	a7 81       	ldd	r26, Z+7	; 0x07
    165c:	b0 85       	ldd	r27, Z+8	; 0x08
    165e:	7c 91       	ld	r23, X
    1660:	ec 01       	movw	r28, r24
    1662:	02 c0       	rjmp	.+4      	; 0x1668 <lcdWriteCharacter+0xb8>
    1664:	cc 0f       	add	r28, r28
    1666:	dd 1f       	adc	r29, r29
    1668:	4a 95       	dec	r20
    166a:	e2 f7       	brpl	.-8      	; 0x1664 <lcdWriteCharacter+0xb4>
    166c:	ae 01       	movw	r20, r28
    166e:	47 2b       	or	r20, r23
    1670:	4c 93       	st	X, r20
    1672:	d5 e0       	ldi	r29, 0x05	; 5
    1674:	da 95       	dec	r29
    1676:	f1 f7       	brne	.-4      	; 0x1674 <lcdWriteCharacter+0xc4>
    1678:	00 00       	nop
		_delay_us(1);
		clrBit(*(lcd->controlPORT), lcd->controlE);			// Enable pulse end
    167a:	51 85       	ldd	r21, Z+9	; 0x09
    167c:	56 95       	lsr	r21
    167e:	56 95       	lsr	r21
    1680:	56 95       	lsr	r21
    1682:	57 70       	andi	r21, 0x07	; 7
    1684:	a7 81       	ldd	r26, Z+7	; 0x07
    1686:	b0 85       	ldd	r27, Z+8	; 0x08
    1688:	7c 91       	ld	r23, X
    168a:	ec 01       	movw	r28, r24
    168c:	02 c0       	rjmp	.+4      	; 0x1692 <lcdWriteCharacter+0xe2>
    168e:	cc 0f       	add	r28, r28
    1690:	dd 1f       	adc	r29, r29
    1692:	5a 95       	dec	r21
    1694:	e2 f7       	brpl	.-8      	; 0x168e <lcdWriteCharacter+0xde>
    1696:	ae 01       	movw	r20, r28
    1698:	40 95       	com	r20
    169a:	50 95       	com	r21
    169c:	47 23       	and	r20, r23
    169e:	4c 93       	st	X, r20
    16a0:	d5 e0       	ldi	r29, 0x05	; 5
    16a2:	da 95       	dec	r29
    16a4:	f1 f7       	brne	.-4      	; 0x16a2 <lcdWriteCharacter+0xf2>
    16a6:	00 00       	nop
		_delay_us(1);
		clrMask(*(lcd->dataPORT), 0x0F, lcd->dataFirst);	// Writes data (lower nibble)
    16a8:	44 81       	ldd	r20, Z+4	; 0x04
    16aa:	47 70       	andi	r20, 0x07	; 7
    16ac:	a2 81       	ldd	r26, Z+2	; 0x02
    16ae:	b3 81       	ldd	r27, Z+3	; 0x03
    16b0:	5c 91       	ld	r21, X
    16b2:	02 c0       	rjmp	.+4      	; 0x16b8 <lcdWriteCharacter+0x108>
    16b4:	22 0f       	add	r18, r18
    16b6:	33 1f       	adc	r19, r19
    16b8:	4a 95       	dec	r20
    16ba:	e2 f7       	brpl	.-8      	; 0x16b4 <lcdWriteCharacter+0x104>
    16bc:	20 95       	com	r18
    16be:	30 95       	com	r19
    16c0:	25 23       	and	r18, r21
    16c2:	2c 93       	st	X, r18
		*(lcd->dataPORT) |= ((character & 0x0F) << lcd->dataFirst);
    16c4:	34 81       	ldd	r19, Z+4	; 0x04
    16c6:	37 70       	andi	r19, 0x07	; 7
    16c8:	a2 81       	ldd	r26, Z+2	; 0x02
    16ca:	b3 81       	ldd	r27, Z+3	; 0x03
    16cc:	2c 91       	ld	r18, X
    16ce:	6f 70       	andi	r22, 0x0F	; 15
    16d0:	01 c0       	rjmp	.+2      	; 0x16d4 <lcdWriteCharacter+0x124>
    16d2:	66 0f       	add	r22, r22
    16d4:	3a 95       	dec	r19
    16d6:	ea f7       	brpl	.-6      	; 0x16d2 <lcdWriteCharacter+0x122>
    16d8:	62 2b       	or	r22, r18
    16da:	6c 93       	st	X, r22
		setBit(*(lcd->controlPORT), lcd->controlE);			// Enable pulse start
    16dc:	21 85       	ldd	r18, Z+9	; 0x09
    16de:	26 95       	lsr	r18
    16e0:	26 95       	lsr	r18
    16e2:	26 95       	lsr	r18
    16e4:	27 70       	andi	r18, 0x07	; 7
    16e6:	a7 81       	ldd	r26, Z+7	; 0x07
    16e8:	b0 85       	ldd	r27, Z+8	; 0x08
    16ea:	4c 91       	ld	r20, X
    16ec:	bc 01       	movw	r22, r24
    16ee:	02 c0       	rjmp	.+4      	; 0x16f4 <lcdWriteCharacter+0x144>
    16f0:	66 0f       	add	r22, r22
    16f2:	77 1f       	adc	r23, r23
    16f4:	2a 95       	dec	r18
    16f6:	e2 f7       	brpl	.-8      	; 0x16f0 <lcdWriteCharacter+0x140>
    16f8:	9b 01       	movw	r18, r22
    16fa:	24 2b       	or	r18, r20
    16fc:	2c 93       	st	X, r18
    16fe:	75 e0       	ldi	r23, 0x05	; 5
    1700:	7a 95       	dec	r23
    1702:	f1 f7       	brne	.-4      	; 0x1700 <lcdWriteCharacter+0x150>
    1704:	00 00       	nop
		_delay_us(1);
		clrBit(*(lcd->controlPORT), lcd->controlE);			// Enable pulse end
    1706:	21 85       	ldd	r18, Z+9	; 0x09
    1708:	26 95       	lsr	r18
    170a:	26 95       	lsr	r18
    170c:	26 95       	lsr	r18
    170e:	27 70       	andi	r18, 0x07	; 7
    1710:	a7 81       	ldd	r26, Z+7	; 0x07
    1712:	b0 85       	ldd	r27, Z+8	; 0x08
    1714:	3c 91       	ld	r19, X
    1716:	02 c0       	rjmp	.+4      	; 0x171c <lcdWriteCharacter+0x16c>
    1718:	88 0f       	add	r24, r24
    171a:	99 1f       	adc	r25, r25
    171c:	2a 95       	dec	r18
    171e:	e2 f7       	brpl	.-8      	; 0x1718 <lcdWriteCharacter+0x168>
    1720:	80 95       	com	r24
    1722:	90 95       	com	r25
    1724:	83 23       	and	r24, r19
    1726:	8c 93       	st	X, r24
    1728:	85 ed       	ldi	r24, 0xD5	; 213
    172a:	8a 95       	dec	r24
    172c:	f1 f7       	brne	.-4      	; 0x172a <lcdWriteCharacter+0x17a>
    172e:	00 00       	nop
		_delay_us(40);
		lcd->cursorColumn++;
    1730:	83 85       	ldd	r24, Z+11	; 0x0b
    1732:	86 95       	lsr	r24
    1734:	8f 5f       	subi	r24, 0xFF	; 255
    1736:	8f 73       	andi	r24, 0x3F	; 63
    1738:	98 2f       	mov	r25, r24
    173a:	99 0f       	add	r25, r25
    173c:	83 85       	ldd	r24, Z+11	; 0x0b
    173e:	81 78       	andi	r24, 0x81	; 129
    1740:	89 2b       	or	r24, r25
    1742:	83 87       	std	Z+11, r24	; 0x0b
	}

	return LCD_OK;
    1744:	80 e0       	ldi	r24, 0x00	; 0
    1746:	03 c0       	rjmp	.+6      	; 0x174e <lcdWriteCharacter+0x19e>
 * -------------------------------------------------------------------------- */

lcdResult_t lcdWriteCharacter(volatile lcdConfiguration_t * lcd, uint8 character)
{
	if(lcd->initialized == FALSE)
		return LCD_NOT_INITIALIZED;
    1748:	87 e0       	ldi	r24, 0x07	; 7
    174a:	01 c0       	rjmp	.+2      	; 0x174e <lcdWriteCharacter+0x19e>
		clrBit(*(lcd->controlPORT), lcd->controlE);			// Enable pulse end
		_delay_us(40);
		lcd->cursorColumn++;
	}

	return LCD_OK;
    174c:	80 e0       	ldi	r24, 0x00	; 0
}
    174e:	df 91       	pop	r29
    1750:	cf 91       	pop	r28
    1752:	08 95       	ret

00001754 <lcdWriteStd>:
 * Returns:		0 (This function always returns 0)
 * Note:		This function must not be used outside this file
 * -------------------------------------------------------------------------- */

int16 lcdWriteStd(int8 character, FILE * stream)
{
    1754:	cf 93       	push	r28
    1756:	df 93       	push	r29
	uint8 columns = 0;
	uint8 i = 0;

	if(defaultDisplay->initialized == FALSE)
    1758:	a0 91 14 02 	lds	r26, 0x0214	; 0x800214 <__data_end>
    175c:	b0 91 15 02 	lds	r27, 0x0215	; 0x800215 <__data_end+0x1>
    1760:	1c 96       	adiw	r26, 0x0c	; 12
    1762:	9c 91       	ld	r25, X
    1764:	1c 97       	sbiw	r26, 0x0c	; 12
    1766:	93 ff       	sbrs	r25, 3
    1768:	4c c0       	rjmp	.+152    	; 0x1802 <lcdWriteStd+0xae>
		return FALSE;

	switch(defaultDisplay->size){
    176a:	19 96       	adiw	r26, 0x09	; 9
    176c:	ec 91       	ld	r30, X
    176e:	19 97       	sbiw	r26, 0x09	; 9
    1770:	9e 2f       	mov	r25, r30
    1772:	92 95       	swap	r25
    1774:	96 95       	lsr	r25
    1776:	96 95       	lsr	r25
    1778:	93 70       	andi	r25, 0x03	; 3
    177a:	1a 96       	adiw	r26, 0x0a	; 10
    177c:	4c 91       	ld	r20, X
    177e:	1a 97       	sbiw	r26, 0x0a	; 10
    1780:	47 70       	andi	r20, 0x07	; 7
    1782:	44 0f       	add	r20, r20
    1784:	44 0f       	add	r20, r20
    1786:	e4 2f       	mov	r30, r20
    1788:	e9 2b       	or	r30, r25
    178a:	4e 2f       	mov	r20, r30
    178c:	50 e0       	ldi	r21, 0x00	; 0
    178e:	fa 01       	movw	r30, r20
    1790:	31 97       	sbiw	r30, 0x01	; 1
    1792:	e2 31       	cpi	r30, 0x12	; 18
    1794:	f1 05       	cpc	r31, r1
    1796:	90 f5       	brcc	.+100    	; 0x17fc <lcdWriteStd+0xa8>
    1798:	e2 57       	subi	r30, 0x72	; 114
    179a:	ff 4f       	sbci	r31, 0xFF	; 255
    179c:	37 c0       	rjmp	.+110    	; 0x180c <__tablejump2__>
	case LCD_8X1:
	case LCD_8X2:
		columns = 8;
    179e:	d8 e0       	ldi	r29, 0x08	; 8
    17a0:	0f c0       	rjmp	.+30     	; 0x17c0 <lcdWriteStd+0x6c>
	case LCD_10x2:
		columns = 10;
		break;
	case LCD_12X2:
	case LCD_12X4:
		columns = 12;
    17a2:	dc e0       	ldi	r29, 0x0C	; 12
		break;
    17a4:	0d c0       	rjmp	.+26     	; 0x17c0 <lcdWriteStd+0x6c>
	case LCD_16X1:
	case LCD_16X1b:
	case LCD_16X2:
	case LCD_16X4:
		columns = 16;
    17a6:	d0 e1       	ldi	r29, 0x10	; 16
		break;
    17a8:	0b c0       	rjmp	.+22     	; 0x17c0 <lcdWriteStd+0x6c>
	case LCD_20X1:
	case LCD_20X2:
	case LCD_20X4:
		columns = 20;
    17aa:	d4 e1       	ldi	r29, 0x14	; 20
		break;
    17ac:	09 c0       	rjmp	.+18     	; 0x17c0 <lcdWriteStd+0x6c>
	case LCD_24X1:
	case LCD_24X2:
		columns = 24;
    17ae:	d8 e1       	ldi	r29, 0x18	; 24
		break;
    17b0:	07 c0       	rjmp	.+14     	; 0x17c0 <lcdWriteStd+0x6c>
	case LCD_30X2:
		columns = 30;
    17b2:	de e1       	ldi	r29, 0x1E	; 30
		break;
    17b4:	05 c0       	rjmp	.+10     	; 0x17c0 <lcdWriteStd+0x6c>
	case LCD_32X2:
		columns = 32;
    17b6:	d0 e2       	ldi	r29, 0x20	; 32
		break;
    17b8:	03 c0       	rjmp	.+6      	; 0x17c0 <lcdWriteStd+0x6c>
	case LCD_40X1:
	case LCD_40X2:
		columns = 40;
    17ba:	d8 e2       	ldi	r29, 0x28	; 40
		break;
    17bc:	01 c0       	rjmp	.+2      	; 0x17c0 <lcdWriteStd+0x6c>
	case LCD_8X1:
	case LCD_8X2:
		columns = 8;
		break;
	case LCD_10x2:
		columns = 10;
    17be:	da e0       	ldi	r29, 0x0A	; 10
	case LCD_40X2:
		columns = 40;
		break;
	}

	if(character == '\n'){
    17c0:	8a 30       	cpi	r24, 0x0A	; 10
    17c2:	a9 f4       	brne	.+42     	; 0x17ee <lcdWriteStd+0x9a>
		for(i = defaultDisplay->cursorColumn;i < columns;i++)
    17c4:	1b 96       	adiw	r26, 0x0b	; 11
    17c6:	cc 91       	ld	r28, X
    17c8:	c6 95       	lsr	r28
    17ca:	cf 73       	andi	r28, 0x3F	; 63
    17cc:	cd 17       	cp	r28, r29
    17ce:	48 f4       	brcc	.+18     	; 0x17e2 <lcdWriteStd+0x8e>
			lcdWriteCharacter(defaultDisplay, ' ');
    17d0:	60 e2       	ldi	r22, 0x20	; 32
    17d2:	80 91 14 02 	lds	r24, 0x0214	; 0x800214 <__data_end>
    17d6:	90 91 15 02 	lds	r25, 0x0215	; 0x800215 <__data_end+0x1>
    17da:	ea de       	rcall	.-556    	; 0x15b0 <lcdWriteCharacter>
		columns = 40;
		break;
	}

	if(character == '\n'){
		for(i = defaultDisplay->cursorColumn;i < columns;i++)
    17dc:	cf 5f       	subi	r28, 0xFF	; 255
    17de:	cd 17       	cp	r28, r29
    17e0:	b8 f3       	brcs	.-18     	; 0x17d0 <lcdWriteStd+0x7c>
			lcdWriteCharacter(defaultDisplay, ' ');
			lcdCursorMoveNextLine(defaultDisplay);
    17e2:	80 91 14 02 	lds	r24, 0x0214	; 0x800214 <__data_end>
    17e6:	90 91 15 02 	lds	r25, 0x0215	; 0x800215 <__data_end+0x1>
    17ea:	9e dc       	rcall	.-1732   	; 0x1128 <lcdCursorMoveNextLine>
    17ec:	0a c0       	rjmp	.+20     	; 0x1802 <lcdWriteStd+0xae>
	}else{
		lcdWriteCharacter(defaultDisplay, character);
    17ee:	68 2f       	mov	r22, r24
    17f0:	cd 01       	movw	r24, r26
    17f2:	de de       	rcall	.-580    	; 0x15b0 <lcdWriteCharacter>
    17f4:	06 c0       	rjmp	.+12     	; 0x1802 <lcdWriteStd+0xae>
    17f6:	1b 96       	adiw	r26, 0x0b	; 11
		columns = 40;
		break;
	}

	if(character == '\n'){
		for(i = defaultDisplay->cursorColumn;i < columns;i++)
    17f8:	8c 91       	ld	r24, X
    17fa:	f3 cf       	rjmp	.-26     	; 0x17e2 <lcdWriteStd+0x8e>
    17fc:	8a 30       	cpi	r24, 0x0A	; 10
	case LCD_40X2:
		columns = 40;
		break;
	}

	if(character == '\n'){
    17fe:	b9 f7       	brne	.-18     	; 0x17ee <lcdWriteStd+0x9a>
    1800:	fa cf       	rjmp	.-12     	; 0x17f6 <lcdWriteStd+0xa2>
    1802:	80 e0       	ldi	r24, 0x00	; 0
	}else{
		lcdWriteCharacter(defaultDisplay, character);
	}

	return 0;
    1804:	90 e0       	ldi	r25, 0x00	; 0
    1806:	df 91       	pop	r29
    1808:	cf 91       	pop	r28
    180a:	08 95       	ret

0000180c <__tablejump2__>:
    180c:	ee 0f       	add	r30, r30
    180e:	ff 1f       	adc	r31, r31
    1810:	05 90       	lpm	r0, Z+
    1812:	f4 91       	lpm	r31, Z
    1814:	e0 2d       	mov	r30, r0
    1816:	09 94       	ijmp

00001818 <malloc>:
    1818:	0f 93       	push	r16
    181a:	1f 93       	push	r17
    181c:	cf 93       	push	r28
    181e:	df 93       	push	r29
    1820:	82 30       	cpi	r24, 0x02	; 2
    1822:	91 05       	cpc	r25, r1
    1824:	10 f4       	brcc	.+4      	; 0x182a <malloc+0x12>
    1826:	82 e0       	ldi	r24, 0x02	; 2
    1828:	90 e0       	ldi	r25, 0x00	; 0
    182a:	e0 91 19 02 	lds	r30, 0x0219	; 0x800219 <__flp>
    182e:	f0 91 1a 02 	lds	r31, 0x021A	; 0x80021a <__flp+0x1>
    1832:	20 e0       	ldi	r18, 0x00	; 0
    1834:	30 e0       	ldi	r19, 0x00	; 0
    1836:	a0 e0       	ldi	r26, 0x00	; 0
    1838:	b0 e0       	ldi	r27, 0x00	; 0
    183a:	30 97       	sbiw	r30, 0x00	; 0
    183c:	19 f1       	breq	.+70     	; 0x1884 <malloc+0x6c>
    183e:	40 81       	ld	r20, Z
    1840:	51 81       	ldd	r21, Z+1	; 0x01
    1842:	02 81       	ldd	r16, Z+2	; 0x02
    1844:	13 81       	ldd	r17, Z+3	; 0x03
    1846:	48 17       	cp	r20, r24
    1848:	59 07       	cpc	r21, r25
    184a:	c8 f0       	brcs	.+50     	; 0x187e <malloc+0x66>
    184c:	84 17       	cp	r24, r20
    184e:	95 07       	cpc	r25, r21
    1850:	69 f4       	brne	.+26     	; 0x186c <malloc+0x54>
    1852:	10 97       	sbiw	r26, 0x00	; 0
    1854:	31 f0       	breq	.+12     	; 0x1862 <malloc+0x4a>
    1856:	12 96       	adiw	r26, 0x02	; 2
    1858:	0c 93       	st	X, r16
    185a:	12 97       	sbiw	r26, 0x02	; 2
    185c:	13 96       	adiw	r26, 0x03	; 3
    185e:	1c 93       	st	X, r17
    1860:	27 c0       	rjmp	.+78     	; 0x18b0 <malloc+0x98>
    1862:	00 93 19 02 	sts	0x0219, r16	; 0x800219 <__flp>
    1866:	10 93 1a 02 	sts	0x021A, r17	; 0x80021a <__flp+0x1>
    186a:	22 c0       	rjmp	.+68     	; 0x18b0 <malloc+0x98>
    186c:	21 15       	cp	r18, r1
    186e:	31 05       	cpc	r19, r1
    1870:	19 f0       	breq	.+6      	; 0x1878 <malloc+0x60>
    1872:	42 17       	cp	r20, r18
    1874:	53 07       	cpc	r21, r19
    1876:	18 f4       	brcc	.+6      	; 0x187e <malloc+0x66>
    1878:	9a 01       	movw	r18, r20
    187a:	bd 01       	movw	r22, r26
    187c:	ef 01       	movw	r28, r30
    187e:	df 01       	movw	r26, r30
    1880:	f8 01       	movw	r30, r16
    1882:	db cf       	rjmp	.-74     	; 0x183a <malloc+0x22>
    1884:	21 15       	cp	r18, r1
    1886:	31 05       	cpc	r19, r1
    1888:	f9 f0       	breq	.+62     	; 0x18c8 <malloc+0xb0>
    188a:	28 1b       	sub	r18, r24
    188c:	39 0b       	sbc	r19, r25
    188e:	24 30       	cpi	r18, 0x04	; 4
    1890:	31 05       	cpc	r19, r1
    1892:	80 f4       	brcc	.+32     	; 0x18b4 <malloc+0x9c>
    1894:	8a 81       	ldd	r24, Y+2	; 0x02
    1896:	9b 81       	ldd	r25, Y+3	; 0x03
    1898:	61 15       	cp	r22, r1
    189a:	71 05       	cpc	r23, r1
    189c:	21 f0       	breq	.+8      	; 0x18a6 <malloc+0x8e>
    189e:	fb 01       	movw	r30, r22
    18a0:	93 83       	std	Z+3, r25	; 0x03
    18a2:	82 83       	std	Z+2, r24	; 0x02
    18a4:	04 c0       	rjmp	.+8      	; 0x18ae <malloc+0x96>
    18a6:	90 93 1a 02 	sts	0x021A, r25	; 0x80021a <__flp+0x1>
    18aa:	80 93 19 02 	sts	0x0219, r24	; 0x800219 <__flp>
    18ae:	fe 01       	movw	r30, r28
    18b0:	32 96       	adiw	r30, 0x02	; 2
    18b2:	44 c0       	rjmp	.+136    	; 0x193c <malloc+0x124>
    18b4:	fe 01       	movw	r30, r28
    18b6:	e2 0f       	add	r30, r18
    18b8:	f3 1f       	adc	r31, r19
    18ba:	81 93       	st	Z+, r24
    18bc:	91 93       	st	Z+, r25
    18be:	22 50       	subi	r18, 0x02	; 2
    18c0:	31 09       	sbc	r19, r1
    18c2:	39 83       	std	Y+1, r19	; 0x01
    18c4:	28 83       	st	Y, r18
    18c6:	3a c0       	rjmp	.+116    	; 0x193c <malloc+0x124>
    18c8:	20 91 17 02 	lds	r18, 0x0217	; 0x800217 <__brkval>
    18cc:	30 91 18 02 	lds	r19, 0x0218	; 0x800218 <__brkval+0x1>
    18d0:	23 2b       	or	r18, r19
    18d2:	41 f4       	brne	.+16     	; 0x18e4 <malloc+0xcc>
    18d4:	20 91 02 01 	lds	r18, 0x0102	; 0x800102 <__malloc_heap_start>
    18d8:	30 91 03 01 	lds	r19, 0x0103	; 0x800103 <__malloc_heap_start+0x1>
    18dc:	30 93 18 02 	sts	0x0218, r19	; 0x800218 <__brkval+0x1>
    18e0:	20 93 17 02 	sts	0x0217, r18	; 0x800217 <__brkval>
    18e4:	20 91 00 01 	lds	r18, 0x0100	; 0x800100 <__data_start>
    18e8:	30 91 01 01 	lds	r19, 0x0101	; 0x800101 <__data_start+0x1>
    18ec:	21 15       	cp	r18, r1
    18ee:	31 05       	cpc	r19, r1
    18f0:	41 f4       	brne	.+16     	; 0x1902 <malloc+0xea>
    18f2:	2d b7       	in	r18, 0x3d	; 61
    18f4:	3e b7       	in	r19, 0x3e	; 62
    18f6:	40 91 04 01 	lds	r20, 0x0104	; 0x800104 <__malloc_margin>
    18fa:	50 91 05 01 	lds	r21, 0x0105	; 0x800105 <__malloc_margin+0x1>
    18fe:	24 1b       	sub	r18, r20
    1900:	35 0b       	sbc	r19, r21
    1902:	e0 91 17 02 	lds	r30, 0x0217	; 0x800217 <__brkval>
    1906:	f0 91 18 02 	lds	r31, 0x0218	; 0x800218 <__brkval+0x1>
    190a:	e2 17       	cp	r30, r18
    190c:	f3 07       	cpc	r31, r19
    190e:	a0 f4       	brcc	.+40     	; 0x1938 <malloc+0x120>
    1910:	2e 1b       	sub	r18, r30
    1912:	3f 0b       	sbc	r19, r31
    1914:	28 17       	cp	r18, r24
    1916:	39 07       	cpc	r19, r25
    1918:	78 f0       	brcs	.+30     	; 0x1938 <malloc+0x120>
    191a:	ac 01       	movw	r20, r24
    191c:	4e 5f       	subi	r20, 0xFE	; 254
    191e:	5f 4f       	sbci	r21, 0xFF	; 255
    1920:	24 17       	cp	r18, r20
    1922:	35 07       	cpc	r19, r21
    1924:	48 f0       	brcs	.+18     	; 0x1938 <malloc+0x120>
    1926:	4e 0f       	add	r20, r30
    1928:	5f 1f       	adc	r21, r31
    192a:	50 93 18 02 	sts	0x0218, r21	; 0x800218 <__brkval+0x1>
    192e:	40 93 17 02 	sts	0x0217, r20	; 0x800217 <__brkval>
    1932:	81 93       	st	Z+, r24
    1934:	91 93       	st	Z+, r25
    1936:	02 c0       	rjmp	.+4      	; 0x193c <malloc+0x124>
    1938:	e0 e0       	ldi	r30, 0x00	; 0
    193a:	f0 e0       	ldi	r31, 0x00	; 0
    193c:	cf 01       	movw	r24, r30
    193e:	df 91       	pop	r29
    1940:	cf 91       	pop	r28
    1942:	1f 91       	pop	r17
    1944:	0f 91       	pop	r16
    1946:	08 95       	ret

00001948 <free>:
    1948:	cf 93       	push	r28
    194a:	df 93       	push	r29
    194c:	00 97       	sbiw	r24, 0x00	; 0
    194e:	09 f4       	brne	.+2      	; 0x1952 <free+0xa>
    1950:	81 c0       	rjmp	.+258    	; 0x1a54 <free+0x10c>
    1952:	fc 01       	movw	r30, r24
    1954:	32 97       	sbiw	r30, 0x02	; 2
    1956:	13 82       	std	Z+3, r1	; 0x03
    1958:	12 82       	std	Z+2, r1	; 0x02
    195a:	a0 91 19 02 	lds	r26, 0x0219	; 0x800219 <__flp>
    195e:	b0 91 1a 02 	lds	r27, 0x021A	; 0x80021a <__flp+0x1>
    1962:	10 97       	sbiw	r26, 0x00	; 0
    1964:	81 f4       	brne	.+32     	; 0x1986 <free+0x3e>
    1966:	20 81       	ld	r18, Z
    1968:	31 81       	ldd	r19, Z+1	; 0x01
    196a:	82 0f       	add	r24, r18
    196c:	93 1f       	adc	r25, r19
    196e:	20 91 17 02 	lds	r18, 0x0217	; 0x800217 <__brkval>
    1972:	30 91 18 02 	lds	r19, 0x0218	; 0x800218 <__brkval+0x1>
    1976:	28 17       	cp	r18, r24
    1978:	39 07       	cpc	r19, r25
    197a:	51 f5       	brne	.+84     	; 0x19d0 <free+0x88>
    197c:	f0 93 18 02 	sts	0x0218, r31	; 0x800218 <__brkval+0x1>
    1980:	e0 93 17 02 	sts	0x0217, r30	; 0x800217 <__brkval>
    1984:	67 c0       	rjmp	.+206    	; 0x1a54 <free+0x10c>
    1986:	ed 01       	movw	r28, r26
    1988:	20 e0       	ldi	r18, 0x00	; 0
    198a:	30 e0       	ldi	r19, 0x00	; 0
    198c:	ce 17       	cp	r28, r30
    198e:	df 07       	cpc	r29, r31
    1990:	40 f4       	brcc	.+16     	; 0x19a2 <free+0x5a>
    1992:	4a 81       	ldd	r20, Y+2	; 0x02
    1994:	5b 81       	ldd	r21, Y+3	; 0x03
    1996:	9e 01       	movw	r18, r28
    1998:	41 15       	cp	r20, r1
    199a:	51 05       	cpc	r21, r1
    199c:	f1 f0       	breq	.+60     	; 0x19da <free+0x92>
    199e:	ea 01       	movw	r28, r20
    19a0:	f5 cf       	rjmp	.-22     	; 0x198c <free+0x44>
    19a2:	d3 83       	std	Z+3, r29	; 0x03
    19a4:	c2 83       	std	Z+2, r28	; 0x02
    19a6:	40 81       	ld	r20, Z
    19a8:	51 81       	ldd	r21, Z+1	; 0x01
    19aa:	84 0f       	add	r24, r20
    19ac:	95 1f       	adc	r25, r21
    19ae:	c8 17       	cp	r28, r24
    19b0:	d9 07       	cpc	r29, r25
    19b2:	59 f4       	brne	.+22     	; 0x19ca <free+0x82>
    19b4:	88 81       	ld	r24, Y
    19b6:	99 81       	ldd	r25, Y+1	; 0x01
    19b8:	84 0f       	add	r24, r20
    19ba:	95 1f       	adc	r25, r21
    19bc:	02 96       	adiw	r24, 0x02	; 2
    19be:	91 83       	std	Z+1, r25	; 0x01
    19c0:	80 83       	st	Z, r24
    19c2:	8a 81       	ldd	r24, Y+2	; 0x02
    19c4:	9b 81       	ldd	r25, Y+3	; 0x03
    19c6:	93 83       	std	Z+3, r25	; 0x03
    19c8:	82 83       	std	Z+2, r24	; 0x02
    19ca:	21 15       	cp	r18, r1
    19cc:	31 05       	cpc	r19, r1
    19ce:	29 f4       	brne	.+10     	; 0x19da <free+0x92>
    19d0:	f0 93 1a 02 	sts	0x021A, r31	; 0x80021a <__flp+0x1>
    19d4:	e0 93 19 02 	sts	0x0219, r30	; 0x800219 <__flp>
    19d8:	3d c0       	rjmp	.+122    	; 0x1a54 <free+0x10c>
    19da:	e9 01       	movw	r28, r18
    19dc:	fb 83       	std	Y+3, r31	; 0x03
    19de:	ea 83       	std	Y+2, r30	; 0x02
    19e0:	49 91       	ld	r20, Y+
    19e2:	59 91       	ld	r21, Y+
    19e4:	c4 0f       	add	r28, r20
    19e6:	d5 1f       	adc	r29, r21
    19e8:	ec 17       	cp	r30, r28
    19ea:	fd 07       	cpc	r31, r29
    19ec:	61 f4       	brne	.+24     	; 0x1a06 <free+0xbe>
    19ee:	80 81       	ld	r24, Z
    19f0:	91 81       	ldd	r25, Z+1	; 0x01
    19f2:	84 0f       	add	r24, r20
    19f4:	95 1f       	adc	r25, r21
    19f6:	02 96       	adiw	r24, 0x02	; 2
    19f8:	e9 01       	movw	r28, r18
    19fa:	99 83       	std	Y+1, r25	; 0x01
    19fc:	88 83       	st	Y, r24
    19fe:	82 81       	ldd	r24, Z+2	; 0x02
    1a00:	93 81       	ldd	r25, Z+3	; 0x03
    1a02:	9b 83       	std	Y+3, r25	; 0x03
    1a04:	8a 83       	std	Y+2, r24	; 0x02
    1a06:	e0 e0       	ldi	r30, 0x00	; 0
    1a08:	f0 e0       	ldi	r31, 0x00	; 0
    1a0a:	12 96       	adiw	r26, 0x02	; 2
    1a0c:	8d 91       	ld	r24, X+
    1a0e:	9c 91       	ld	r25, X
    1a10:	13 97       	sbiw	r26, 0x03	; 3
    1a12:	00 97       	sbiw	r24, 0x00	; 0
    1a14:	19 f0       	breq	.+6      	; 0x1a1c <free+0xd4>
    1a16:	fd 01       	movw	r30, r26
    1a18:	dc 01       	movw	r26, r24
    1a1a:	f7 cf       	rjmp	.-18     	; 0x1a0a <free+0xc2>
    1a1c:	8d 91       	ld	r24, X+
    1a1e:	9c 91       	ld	r25, X
    1a20:	11 97       	sbiw	r26, 0x01	; 1
    1a22:	9d 01       	movw	r18, r26
    1a24:	2e 5f       	subi	r18, 0xFE	; 254
    1a26:	3f 4f       	sbci	r19, 0xFF	; 255
    1a28:	82 0f       	add	r24, r18
    1a2a:	93 1f       	adc	r25, r19
    1a2c:	20 91 17 02 	lds	r18, 0x0217	; 0x800217 <__brkval>
    1a30:	30 91 18 02 	lds	r19, 0x0218	; 0x800218 <__brkval+0x1>
    1a34:	28 17       	cp	r18, r24
    1a36:	39 07       	cpc	r19, r25
    1a38:	69 f4       	brne	.+26     	; 0x1a54 <free+0x10c>
    1a3a:	30 97       	sbiw	r30, 0x00	; 0
    1a3c:	29 f4       	brne	.+10     	; 0x1a48 <free+0x100>
    1a3e:	10 92 1a 02 	sts	0x021A, r1	; 0x80021a <__flp+0x1>
    1a42:	10 92 19 02 	sts	0x0219, r1	; 0x800219 <__flp>
    1a46:	02 c0       	rjmp	.+4      	; 0x1a4c <free+0x104>
    1a48:	13 82       	std	Z+3, r1	; 0x03
    1a4a:	12 82       	std	Z+2, r1	; 0x02
    1a4c:	b0 93 18 02 	sts	0x0218, r27	; 0x800218 <__brkval+0x1>
    1a50:	a0 93 17 02 	sts	0x0217, r26	; 0x800217 <__brkval>
    1a54:	df 91       	pop	r29
    1a56:	cf 91       	pop	r28
    1a58:	08 95       	ret

00001a5a <realloc>:
    1a5a:	a0 e0       	ldi	r26, 0x00	; 0
    1a5c:	b0 e0       	ldi	r27, 0x00	; 0
    1a5e:	e2 e3       	ldi	r30, 0x32	; 50
    1a60:	fd e0       	ldi	r31, 0x0D	; 13
    1a62:	91 c3       	rjmp	.+1826   	; 0x2186 <__prologue_saves__+0x8>
    1a64:	ec 01       	movw	r28, r24
    1a66:	00 97       	sbiw	r24, 0x00	; 0
    1a68:	19 f4       	brne	.+6      	; 0x1a70 <realloc+0x16>
    1a6a:	cb 01       	movw	r24, r22
    1a6c:	d5 de       	rcall	.-598    	; 0x1818 <malloc>
    1a6e:	b0 c0       	rjmp	.+352    	; 0x1bd0 <realloc+0x176>
    1a70:	fc 01       	movw	r30, r24
    1a72:	e6 0f       	add	r30, r22
    1a74:	f7 1f       	adc	r31, r23
    1a76:	9c 01       	movw	r18, r24
    1a78:	22 50       	subi	r18, 0x02	; 2
    1a7a:	31 09       	sbc	r19, r1
    1a7c:	e2 17       	cp	r30, r18
    1a7e:	f3 07       	cpc	r31, r19
    1a80:	08 f4       	brcc	.+2      	; 0x1a84 <realloc+0x2a>
    1a82:	a4 c0       	rjmp	.+328    	; 0x1bcc <realloc+0x172>
    1a84:	d9 01       	movw	r26, r18
    1a86:	0d 91       	ld	r16, X+
    1a88:	1c 91       	ld	r17, X
    1a8a:	11 97       	sbiw	r26, 0x01	; 1
    1a8c:	06 17       	cp	r16, r22
    1a8e:	17 07       	cpc	r17, r23
    1a90:	a8 f0       	brcs	.+42     	; 0x1abc <realloc+0x62>
    1a92:	05 30       	cpi	r16, 0x05	; 5
    1a94:	11 05       	cpc	r17, r1
    1a96:	08 f4       	brcc	.+2      	; 0x1a9a <realloc+0x40>
    1a98:	97 c0       	rjmp	.+302    	; 0x1bc8 <realloc+0x16e>
    1a9a:	c8 01       	movw	r24, r16
    1a9c:	04 97       	sbiw	r24, 0x04	; 4
    1a9e:	86 17       	cp	r24, r22
    1aa0:	97 07       	cpc	r25, r23
    1aa2:	08 f4       	brcc	.+2      	; 0x1aa6 <realloc+0x4c>
    1aa4:	91 c0       	rjmp	.+290    	; 0x1bc8 <realloc+0x16e>
    1aa6:	02 50       	subi	r16, 0x02	; 2
    1aa8:	11 09       	sbc	r17, r1
    1aaa:	06 1b       	sub	r16, r22
    1aac:	17 0b       	sbc	r17, r23
    1aae:	01 93       	st	Z+, r16
    1ab0:	11 93       	st	Z+, r17
    1ab2:	6d 93       	st	X+, r22
    1ab4:	7c 93       	st	X, r23
    1ab6:	cf 01       	movw	r24, r30
    1ab8:	47 df       	rcall	.-370    	; 0x1948 <free>
    1aba:	86 c0       	rjmp	.+268    	; 0x1bc8 <realloc+0x16e>
    1abc:	5b 01       	movw	r10, r22
    1abe:	a0 1a       	sub	r10, r16
    1ac0:	b1 0a       	sbc	r11, r17
    1ac2:	4c 01       	movw	r8, r24
    1ac4:	80 0e       	add	r8, r16
    1ac6:	91 1e       	adc	r9, r17
    1ac8:	a0 91 19 02 	lds	r26, 0x0219	; 0x800219 <__flp>
    1acc:	b0 91 1a 02 	lds	r27, 0x021A	; 0x80021a <__flp+0x1>
    1ad0:	61 2c       	mov	r6, r1
    1ad2:	71 2c       	mov	r7, r1
    1ad4:	e1 2c       	mov	r14, r1
    1ad6:	f1 2c       	mov	r15, r1
    1ad8:	10 97       	sbiw	r26, 0x00	; 0
    1ada:	09 f4       	brne	.+2      	; 0x1ade <realloc+0x84>
    1adc:	46 c0       	rjmp	.+140    	; 0x1b6a <realloc+0x110>
    1ade:	8d 91       	ld	r24, X+
    1ae0:	9c 91       	ld	r25, X
    1ae2:	11 97       	sbiw	r26, 0x01	; 1
    1ae4:	a8 15       	cp	r26, r8
    1ae6:	b9 05       	cpc	r27, r9
    1ae8:	b1 f5       	brne	.+108    	; 0x1b56 <realloc+0xfc>
    1aea:	6c 01       	movw	r12, r24
    1aec:	42 e0       	ldi	r20, 0x02	; 2
    1aee:	c4 0e       	add	r12, r20
    1af0:	d1 1c       	adc	r13, r1
    1af2:	ca 14       	cp	r12, r10
    1af4:	db 04       	cpc	r13, r11
    1af6:	78 f1       	brcs	.+94     	; 0x1b56 <realloc+0xfc>
    1af8:	4c 01       	movw	r8, r24
    1afa:	8a 18       	sub	r8, r10
    1afc:	9b 08       	sbc	r9, r11
    1afe:	64 01       	movw	r12, r8
    1b00:	42 e0       	ldi	r20, 0x02	; 2
    1b02:	c4 0e       	add	r12, r20
    1b04:	d1 1c       	adc	r13, r1
    1b06:	12 96       	adiw	r26, 0x02	; 2
    1b08:	bc 90       	ld	r11, X
    1b0a:	12 97       	sbiw	r26, 0x02	; 2
    1b0c:	13 96       	adiw	r26, 0x03	; 3
    1b0e:	ac 91       	ld	r26, X
    1b10:	b5 e0       	ldi	r27, 0x05	; 5
    1b12:	cb 16       	cp	r12, r27
    1b14:	d1 04       	cpc	r13, r1
    1b16:	40 f0       	brcs	.+16     	; 0x1b28 <realloc+0xce>
    1b18:	b2 82       	std	Z+2, r11	; 0x02
    1b1a:	a3 83       	std	Z+3, r26	; 0x03
    1b1c:	91 82       	std	Z+1, r9	; 0x01
    1b1e:	80 82       	st	Z, r8
    1b20:	d9 01       	movw	r26, r18
    1b22:	6d 93       	st	X+, r22
    1b24:	7c 93       	st	X, r23
    1b26:	09 c0       	rjmp	.+18     	; 0x1b3a <realloc+0xe0>
    1b28:	0e 5f       	subi	r16, 0xFE	; 254
    1b2a:	1f 4f       	sbci	r17, 0xFF	; 255
    1b2c:	80 0f       	add	r24, r16
    1b2e:	91 1f       	adc	r25, r17
    1b30:	f9 01       	movw	r30, r18
    1b32:	91 83       	std	Z+1, r25	; 0x01
    1b34:	80 83       	st	Z, r24
    1b36:	eb 2d       	mov	r30, r11
    1b38:	fa 2f       	mov	r31, r26
    1b3a:	e1 14       	cp	r14, r1
    1b3c:	f1 04       	cpc	r15, r1
    1b3e:	31 f0       	breq	.+12     	; 0x1b4c <realloc+0xf2>
    1b40:	d7 01       	movw	r26, r14
    1b42:	13 96       	adiw	r26, 0x03	; 3
    1b44:	fc 93       	st	X, r31
    1b46:	ee 93       	st	-X, r30
    1b48:	12 97       	sbiw	r26, 0x02	; 2
    1b4a:	3e c0       	rjmp	.+124    	; 0x1bc8 <realloc+0x16e>
    1b4c:	f0 93 1a 02 	sts	0x021A, r31	; 0x80021a <__flp+0x1>
    1b50:	e0 93 19 02 	sts	0x0219, r30	; 0x800219 <__flp>
    1b54:	39 c0       	rjmp	.+114    	; 0x1bc8 <realloc+0x16e>
    1b56:	68 16       	cp	r6, r24
    1b58:	79 06       	cpc	r7, r25
    1b5a:	08 f4       	brcc	.+2      	; 0x1b5e <realloc+0x104>
    1b5c:	3c 01       	movw	r6, r24
    1b5e:	7d 01       	movw	r14, r26
    1b60:	12 96       	adiw	r26, 0x02	; 2
    1b62:	0d 90       	ld	r0, X+
    1b64:	bc 91       	ld	r27, X
    1b66:	a0 2d       	mov	r26, r0
    1b68:	b7 cf       	rjmp	.-146    	; 0x1ad8 <realloc+0x7e>
    1b6a:	80 91 17 02 	lds	r24, 0x0217	; 0x800217 <__brkval>
    1b6e:	90 91 18 02 	lds	r25, 0x0218	; 0x800218 <__brkval+0x1>
    1b72:	88 16       	cp	r8, r24
    1b74:	99 06       	cpc	r9, r25
    1b76:	e1 f4       	brne	.+56     	; 0x1bb0 <realloc+0x156>
    1b78:	66 16       	cp	r6, r22
    1b7a:	77 06       	cpc	r7, r23
    1b7c:	c8 f4       	brcc	.+50     	; 0x1bb0 <realloc+0x156>
    1b7e:	80 91 00 01 	lds	r24, 0x0100	; 0x800100 <__data_start>
    1b82:	90 91 01 01 	lds	r25, 0x0101	; 0x800101 <__data_start+0x1>
    1b86:	00 97       	sbiw	r24, 0x00	; 0
    1b88:	41 f4       	brne	.+16     	; 0x1b9a <realloc+0x140>
    1b8a:	8d b7       	in	r24, 0x3d	; 61
    1b8c:	9e b7       	in	r25, 0x3e	; 62
    1b8e:	40 91 04 01 	lds	r20, 0x0104	; 0x800104 <__malloc_margin>
    1b92:	50 91 05 01 	lds	r21, 0x0105	; 0x800105 <__malloc_margin+0x1>
    1b96:	84 1b       	sub	r24, r20
    1b98:	95 0b       	sbc	r25, r21
    1b9a:	e8 17       	cp	r30, r24
    1b9c:	f9 07       	cpc	r31, r25
    1b9e:	b0 f4       	brcc	.+44     	; 0x1bcc <realloc+0x172>
    1ba0:	f0 93 18 02 	sts	0x0218, r31	; 0x800218 <__brkval+0x1>
    1ba4:	e0 93 17 02 	sts	0x0217, r30	; 0x800217 <__brkval>
    1ba8:	f9 01       	movw	r30, r18
    1baa:	71 83       	std	Z+1, r23	; 0x01
    1bac:	60 83       	st	Z, r22
    1bae:	0c c0       	rjmp	.+24     	; 0x1bc8 <realloc+0x16e>
    1bb0:	cb 01       	movw	r24, r22
    1bb2:	32 de       	rcall	.-924    	; 0x1818 <malloc>
    1bb4:	7c 01       	movw	r14, r24
    1bb6:	00 97       	sbiw	r24, 0x00	; 0
    1bb8:	49 f0       	breq	.+18     	; 0x1bcc <realloc+0x172>
    1bba:	a8 01       	movw	r20, r16
    1bbc:	be 01       	movw	r22, r28
    1bbe:	0c d0       	rcall	.+24     	; 0x1bd8 <memcpy>
    1bc0:	ce 01       	movw	r24, r28
    1bc2:	c2 de       	rcall	.-636    	; 0x1948 <free>
    1bc4:	c7 01       	movw	r24, r14
    1bc6:	04 c0       	rjmp	.+8      	; 0x1bd0 <realloc+0x176>
    1bc8:	ce 01       	movw	r24, r28
    1bca:	02 c0       	rjmp	.+4      	; 0x1bd0 <realloc+0x176>
    1bcc:	80 e0       	ldi	r24, 0x00	; 0
    1bce:	90 e0       	ldi	r25, 0x00	; 0
    1bd0:	cd b7       	in	r28, 0x3d	; 61
    1bd2:	de b7       	in	r29, 0x3e	; 62
    1bd4:	ee e0       	ldi	r30, 0x0E	; 14
    1bd6:	f3 c2       	rjmp	.+1510   	; 0x21be <__epilogue_restores__+0x8>

00001bd8 <memcpy>:
    1bd8:	fb 01       	movw	r30, r22
    1bda:	dc 01       	movw	r26, r24
    1bdc:	02 c0       	rjmp	.+4      	; 0x1be2 <memcpy+0xa>
    1bde:	01 90       	ld	r0, Z+
    1be0:	0d 92       	st	X+, r0
    1be2:	41 50       	subi	r20, 0x01	; 1
    1be4:	50 40       	sbci	r21, 0x00	; 0
    1be6:	d8 f7       	brcc	.-10     	; 0x1bde <memcpy+0x6>
    1be8:	08 95       	ret

00001bea <printf>:
    1bea:	a0 e0       	ldi	r26, 0x00	; 0
    1bec:	b0 e0       	ldi	r27, 0x00	; 0
    1bee:	ea ef       	ldi	r30, 0xFA	; 250
    1bf0:	fd e0       	ldi	r31, 0x0D	; 13
    1bf2:	d5 c2       	rjmp	.+1450   	; 0x219e <__prologue_saves__+0x20>
    1bf4:	ae 01       	movw	r20, r28
    1bf6:	4b 5f       	subi	r20, 0xFB	; 251
    1bf8:	5f 4f       	sbci	r21, 0xFF	; 255
    1bfa:	fa 01       	movw	r30, r20
    1bfc:	61 91       	ld	r22, Z+
    1bfe:	71 91       	ld	r23, Z+
    1c00:	af 01       	movw	r20, r30
    1c02:	80 91 1d 02 	lds	r24, 0x021D	; 0x80021d <__iob+0x2>
    1c06:	90 91 1e 02 	lds	r25, 0x021E	; 0x80021e <__iob+0x3>
    1c0a:	37 d0       	rcall	.+110    	; 0x1c7a <vfprintf>
    1c0c:	e2 e0       	ldi	r30, 0x02	; 2
    1c0e:	e3 c2       	rjmp	.+1478   	; 0x21d6 <__epilogue_restores__+0x20>

00001c10 <putchar>:
    1c10:	60 91 1d 02 	lds	r22, 0x021D	; 0x80021d <__iob+0x2>
    1c14:	70 91 1e 02 	lds	r23, 0x021E	; 0x80021e <__iob+0x3>
    1c18:	18 c2       	rjmp	.+1072   	; 0x204a <fputc>

00001c1a <puts>:
    1c1a:	0f 93       	push	r16
    1c1c:	1f 93       	push	r17
    1c1e:	cf 93       	push	r28
    1c20:	df 93       	push	r29
    1c22:	e0 91 1d 02 	lds	r30, 0x021D	; 0x80021d <__iob+0x2>
    1c26:	f0 91 1e 02 	lds	r31, 0x021E	; 0x80021e <__iob+0x3>
    1c2a:	23 81       	ldd	r18, Z+3	; 0x03
    1c2c:	21 ff       	sbrs	r18, 1
    1c2e:	1b c0       	rjmp	.+54     	; 0x1c66 <puts+0x4c>
    1c30:	8c 01       	movw	r16, r24
    1c32:	d0 e0       	ldi	r29, 0x00	; 0
    1c34:	c0 e0       	ldi	r28, 0x00	; 0
    1c36:	f8 01       	movw	r30, r16
    1c38:	81 91       	ld	r24, Z+
    1c3a:	8f 01       	movw	r16, r30
    1c3c:	60 91 1d 02 	lds	r22, 0x021D	; 0x80021d <__iob+0x2>
    1c40:	70 91 1e 02 	lds	r23, 0x021E	; 0x80021e <__iob+0x3>
    1c44:	db 01       	movw	r26, r22
    1c46:	18 96       	adiw	r26, 0x08	; 8
    1c48:	ed 91       	ld	r30, X+
    1c4a:	fc 91       	ld	r31, X
    1c4c:	19 97       	sbiw	r26, 0x09	; 9
    1c4e:	88 23       	and	r24, r24
    1c50:	31 f0       	breq	.+12     	; 0x1c5e <puts+0x44>
    1c52:	09 95       	icall
    1c54:	89 2b       	or	r24, r25
    1c56:	79 f3       	breq	.-34     	; 0x1c36 <puts+0x1c>
    1c58:	df ef       	ldi	r29, 0xFF	; 255
    1c5a:	cf ef       	ldi	r28, 0xFF	; 255
    1c5c:	ec cf       	rjmp	.-40     	; 0x1c36 <puts+0x1c>
    1c5e:	8a e0       	ldi	r24, 0x0A	; 10
    1c60:	09 95       	icall
    1c62:	89 2b       	or	r24, r25
    1c64:	19 f0       	breq	.+6      	; 0x1c6c <puts+0x52>
    1c66:	8f ef       	ldi	r24, 0xFF	; 255
    1c68:	9f ef       	ldi	r25, 0xFF	; 255
    1c6a:	02 c0       	rjmp	.+4      	; 0x1c70 <puts+0x56>
    1c6c:	8d 2f       	mov	r24, r29
    1c6e:	9c 2f       	mov	r25, r28
    1c70:	df 91       	pop	r29
    1c72:	cf 91       	pop	r28
    1c74:	1f 91       	pop	r17
    1c76:	0f 91       	pop	r16
    1c78:	08 95       	ret

00001c7a <vfprintf>:
    1c7a:	ab e0       	ldi	r26, 0x0B	; 11
    1c7c:	b0 e0       	ldi	r27, 0x00	; 0
    1c7e:	e2 e4       	ldi	r30, 0x42	; 66
    1c80:	fe e0       	ldi	r31, 0x0E	; 14
    1c82:	7d c2       	rjmp	.+1274   	; 0x217e <__prologue_saves__>
    1c84:	6c 01       	movw	r12, r24
    1c86:	7b 01       	movw	r14, r22
    1c88:	8a 01       	movw	r16, r20
    1c8a:	fc 01       	movw	r30, r24
    1c8c:	17 82       	std	Z+7, r1	; 0x07
    1c8e:	16 82       	std	Z+6, r1	; 0x06
    1c90:	83 81       	ldd	r24, Z+3	; 0x03
    1c92:	81 ff       	sbrs	r24, 1
    1c94:	bf c1       	rjmp	.+894    	; 0x2014 <vfprintf+0x39a>
    1c96:	ce 01       	movw	r24, r28
    1c98:	01 96       	adiw	r24, 0x01	; 1
    1c9a:	3c 01       	movw	r6, r24
    1c9c:	f6 01       	movw	r30, r12
    1c9e:	93 81       	ldd	r25, Z+3	; 0x03
    1ca0:	f7 01       	movw	r30, r14
    1ca2:	93 fd       	sbrc	r25, 3
    1ca4:	85 91       	lpm	r24, Z+
    1ca6:	93 ff       	sbrs	r25, 3
    1ca8:	81 91       	ld	r24, Z+
    1caa:	7f 01       	movw	r14, r30
    1cac:	88 23       	and	r24, r24
    1cae:	09 f4       	brne	.+2      	; 0x1cb2 <vfprintf+0x38>
    1cb0:	ad c1       	rjmp	.+858    	; 0x200c <vfprintf+0x392>
    1cb2:	85 32       	cpi	r24, 0x25	; 37
    1cb4:	39 f4       	brne	.+14     	; 0x1cc4 <vfprintf+0x4a>
    1cb6:	93 fd       	sbrc	r25, 3
    1cb8:	85 91       	lpm	r24, Z+
    1cba:	93 ff       	sbrs	r25, 3
    1cbc:	81 91       	ld	r24, Z+
    1cbe:	7f 01       	movw	r14, r30
    1cc0:	85 32       	cpi	r24, 0x25	; 37
    1cc2:	21 f4       	brne	.+8      	; 0x1ccc <vfprintf+0x52>
    1cc4:	b6 01       	movw	r22, r12
    1cc6:	90 e0       	ldi	r25, 0x00	; 0
    1cc8:	c0 d1       	rcall	.+896    	; 0x204a <fputc>
    1cca:	e8 cf       	rjmp	.-48     	; 0x1c9c <vfprintf+0x22>
    1ccc:	91 2c       	mov	r9, r1
    1cce:	21 2c       	mov	r2, r1
    1cd0:	31 2c       	mov	r3, r1
    1cd2:	ff e1       	ldi	r31, 0x1F	; 31
    1cd4:	f3 15       	cp	r31, r3
    1cd6:	d8 f0       	brcs	.+54     	; 0x1d0e <vfprintf+0x94>
    1cd8:	8b 32       	cpi	r24, 0x2B	; 43
    1cda:	79 f0       	breq	.+30     	; 0x1cfa <vfprintf+0x80>
    1cdc:	38 f4       	brcc	.+14     	; 0x1cec <vfprintf+0x72>
    1cde:	80 32       	cpi	r24, 0x20	; 32
    1ce0:	79 f0       	breq	.+30     	; 0x1d00 <vfprintf+0x86>
    1ce2:	83 32       	cpi	r24, 0x23	; 35
    1ce4:	a1 f4       	brne	.+40     	; 0x1d0e <vfprintf+0x94>
    1ce6:	23 2d       	mov	r18, r3
    1ce8:	20 61       	ori	r18, 0x10	; 16
    1cea:	1d c0       	rjmp	.+58     	; 0x1d26 <vfprintf+0xac>
    1cec:	8d 32       	cpi	r24, 0x2D	; 45
    1cee:	61 f0       	breq	.+24     	; 0x1d08 <vfprintf+0x8e>
    1cf0:	80 33       	cpi	r24, 0x30	; 48
    1cf2:	69 f4       	brne	.+26     	; 0x1d0e <vfprintf+0x94>
    1cf4:	23 2d       	mov	r18, r3
    1cf6:	21 60       	ori	r18, 0x01	; 1
    1cf8:	16 c0       	rjmp	.+44     	; 0x1d26 <vfprintf+0xac>
    1cfa:	83 2d       	mov	r24, r3
    1cfc:	82 60       	ori	r24, 0x02	; 2
    1cfe:	38 2e       	mov	r3, r24
    1d00:	e3 2d       	mov	r30, r3
    1d02:	e4 60       	ori	r30, 0x04	; 4
    1d04:	3e 2e       	mov	r3, r30
    1d06:	2a c0       	rjmp	.+84     	; 0x1d5c <vfprintf+0xe2>
    1d08:	f3 2d       	mov	r31, r3
    1d0a:	f8 60       	ori	r31, 0x08	; 8
    1d0c:	1d c0       	rjmp	.+58     	; 0x1d48 <vfprintf+0xce>
    1d0e:	37 fc       	sbrc	r3, 7
    1d10:	2d c0       	rjmp	.+90     	; 0x1d6c <vfprintf+0xf2>
    1d12:	20 ed       	ldi	r18, 0xD0	; 208
    1d14:	28 0f       	add	r18, r24
    1d16:	2a 30       	cpi	r18, 0x0A	; 10
    1d18:	40 f0       	brcs	.+16     	; 0x1d2a <vfprintf+0xb0>
    1d1a:	8e 32       	cpi	r24, 0x2E	; 46
    1d1c:	b9 f4       	brne	.+46     	; 0x1d4c <vfprintf+0xd2>
    1d1e:	36 fc       	sbrc	r3, 6
    1d20:	75 c1       	rjmp	.+746    	; 0x200c <vfprintf+0x392>
    1d22:	23 2d       	mov	r18, r3
    1d24:	20 64       	ori	r18, 0x40	; 64
    1d26:	32 2e       	mov	r3, r18
    1d28:	19 c0       	rjmp	.+50     	; 0x1d5c <vfprintf+0xe2>
    1d2a:	36 fe       	sbrs	r3, 6
    1d2c:	06 c0       	rjmp	.+12     	; 0x1d3a <vfprintf+0xc0>
    1d2e:	8a e0       	ldi	r24, 0x0A	; 10
    1d30:	98 9e       	mul	r9, r24
    1d32:	20 0d       	add	r18, r0
    1d34:	11 24       	eor	r1, r1
    1d36:	92 2e       	mov	r9, r18
    1d38:	11 c0       	rjmp	.+34     	; 0x1d5c <vfprintf+0xe2>
    1d3a:	ea e0       	ldi	r30, 0x0A	; 10
    1d3c:	2e 9e       	mul	r2, r30
    1d3e:	20 0d       	add	r18, r0
    1d40:	11 24       	eor	r1, r1
    1d42:	22 2e       	mov	r2, r18
    1d44:	f3 2d       	mov	r31, r3
    1d46:	f0 62       	ori	r31, 0x20	; 32
    1d48:	3f 2e       	mov	r3, r31
    1d4a:	08 c0       	rjmp	.+16     	; 0x1d5c <vfprintf+0xe2>
    1d4c:	8c 36       	cpi	r24, 0x6C	; 108
    1d4e:	21 f4       	brne	.+8      	; 0x1d58 <vfprintf+0xde>
    1d50:	83 2d       	mov	r24, r3
    1d52:	80 68       	ori	r24, 0x80	; 128
    1d54:	38 2e       	mov	r3, r24
    1d56:	02 c0       	rjmp	.+4      	; 0x1d5c <vfprintf+0xe2>
    1d58:	88 36       	cpi	r24, 0x68	; 104
    1d5a:	41 f4       	brne	.+16     	; 0x1d6c <vfprintf+0xf2>
    1d5c:	f7 01       	movw	r30, r14
    1d5e:	93 fd       	sbrc	r25, 3
    1d60:	85 91       	lpm	r24, Z+
    1d62:	93 ff       	sbrs	r25, 3
    1d64:	81 91       	ld	r24, Z+
    1d66:	7f 01       	movw	r14, r30
    1d68:	81 11       	cpse	r24, r1
    1d6a:	b3 cf       	rjmp	.-154    	; 0x1cd2 <vfprintf+0x58>
    1d6c:	98 2f       	mov	r25, r24
    1d6e:	9f 7d       	andi	r25, 0xDF	; 223
    1d70:	95 54       	subi	r25, 0x45	; 69
    1d72:	93 30       	cpi	r25, 0x03	; 3
    1d74:	28 f4       	brcc	.+10     	; 0x1d80 <vfprintf+0x106>
    1d76:	0c 5f       	subi	r16, 0xFC	; 252
    1d78:	1f 4f       	sbci	r17, 0xFF	; 255
    1d7a:	9f e3       	ldi	r25, 0x3F	; 63
    1d7c:	99 83       	std	Y+1, r25	; 0x01
    1d7e:	0d c0       	rjmp	.+26     	; 0x1d9a <vfprintf+0x120>
    1d80:	83 36       	cpi	r24, 0x63	; 99
    1d82:	31 f0       	breq	.+12     	; 0x1d90 <vfprintf+0x116>
    1d84:	83 37       	cpi	r24, 0x73	; 115
    1d86:	71 f0       	breq	.+28     	; 0x1da4 <vfprintf+0x12a>
    1d88:	83 35       	cpi	r24, 0x53	; 83
    1d8a:	09 f0       	breq	.+2      	; 0x1d8e <vfprintf+0x114>
    1d8c:	55 c0       	rjmp	.+170    	; 0x1e38 <vfprintf+0x1be>
    1d8e:	20 c0       	rjmp	.+64     	; 0x1dd0 <vfprintf+0x156>
    1d90:	f8 01       	movw	r30, r16
    1d92:	80 81       	ld	r24, Z
    1d94:	89 83       	std	Y+1, r24	; 0x01
    1d96:	0e 5f       	subi	r16, 0xFE	; 254
    1d98:	1f 4f       	sbci	r17, 0xFF	; 255
    1d9a:	88 24       	eor	r8, r8
    1d9c:	83 94       	inc	r8
    1d9e:	91 2c       	mov	r9, r1
    1da0:	53 01       	movw	r10, r6
    1da2:	12 c0       	rjmp	.+36     	; 0x1dc8 <vfprintf+0x14e>
    1da4:	28 01       	movw	r4, r16
    1da6:	f2 e0       	ldi	r31, 0x02	; 2
    1da8:	4f 0e       	add	r4, r31
    1daa:	51 1c       	adc	r5, r1
    1dac:	f8 01       	movw	r30, r16
    1dae:	a0 80       	ld	r10, Z
    1db0:	b1 80       	ldd	r11, Z+1	; 0x01
    1db2:	36 fe       	sbrs	r3, 6
    1db4:	03 c0       	rjmp	.+6      	; 0x1dbc <vfprintf+0x142>
    1db6:	69 2d       	mov	r22, r9
    1db8:	70 e0       	ldi	r23, 0x00	; 0
    1dba:	02 c0       	rjmp	.+4      	; 0x1dc0 <vfprintf+0x146>
    1dbc:	6f ef       	ldi	r22, 0xFF	; 255
    1dbe:	7f ef       	ldi	r23, 0xFF	; 255
    1dc0:	c5 01       	movw	r24, r10
    1dc2:	38 d1       	rcall	.+624    	; 0x2034 <strnlen>
    1dc4:	4c 01       	movw	r8, r24
    1dc6:	82 01       	movw	r16, r4
    1dc8:	f3 2d       	mov	r31, r3
    1dca:	ff 77       	andi	r31, 0x7F	; 127
    1dcc:	3f 2e       	mov	r3, r31
    1dce:	15 c0       	rjmp	.+42     	; 0x1dfa <vfprintf+0x180>
    1dd0:	28 01       	movw	r4, r16
    1dd2:	22 e0       	ldi	r18, 0x02	; 2
    1dd4:	42 0e       	add	r4, r18
    1dd6:	51 1c       	adc	r5, r1
    1dd8:	f8 01       	movw	r30, r16
    1dda:	a0 80       	ld	r10, Z
    1ddc:	b1 80       	ldd	r11, Z+1	; 0x01
    1dde:	36 fe       	sbrs	r3, 6
    1de0:	03 c0       	rjmp	.+6      	; 0x1de8 <vfprintf+0x16e>
    1de2:	69 2d       	mov	r22, r9
    1de4:	70 e0       	ldi	r23, 0x00	; 0
    1de6:	02 c0       	rjmp	.+4      	; 0x1dec <vfprintf+0x172>
    1de8:	6f ef       	ldi	r22, 0xFF	; 255
    1dea:	7f ef       	ldi	r23, 0xFF	; 255
    1dec:	c5 01       	movw	r24, r10
    1dee:	17 d1       	rcall	.+558    	; 0x201e <strnlen_P>
    1df0:	4c 01       	movw	r8, r24
    1df2:	f3 2d       	mov	r31, r3
    1df4:	f0 68       	ori	r31, 0x80	; 128
    1df6:	3f 2e       	mov	r3, r31
    1df8:	82 01       	movw	r16, r4
    1dfa:	33 fc       	sbrc	r3, 3
    1dfc:	19 c0       	rjmp	.+50     	; 0x1e30 <vfprintf+0x1b6>
    1dfe:	82 2d       	mov	r24, r2
    1e00:	90 e0       	ldi	r25, 0x00	; 0
    1e02:	88 16       	cp	r8, r24
    1e04:	99 06       	cpc	r9, r25
    1e06:	a0 f4       	brcc	.+40     	; 0x1e30 <vfprintf+0x1b6>
    1e08:	b6 01       	movw	r22, r12
    1e0a:	80 e2       	ldi	r24, 0x20	; 32
    1e0c:	90 e0       	ldi	r25, 0x00	; 0
    1e0e:	1d d1       	rcall	.+570    	; 0x204a <fputc>
    1e10:	2a 94       	dec	r2
    1e12:	f5 cf       	rjmp	.-22     	; 0x1dfe <vfprintf+0x184>
    1e14:	f5 01       	movw	r30, r10
    1e16:	37 fc       	sbrc	r3, 7
    1e18:	85 91       	lpm	r24, Z+
    1e1a:	37 fe       	sbrs	r3, 7
    1e1c:	81 91       	ld	r24, Z+
    1e1e:	5f 01       	movw	r10, r30
    1e20:	b6 01       	movw	r22, r12
    1e22:	90 e0       	ldi	r25, 0x00	; 0
    1e24:	12 d1       	rcall	.+548    	; 0x204a <fputc>
    1e26:	21 10       	cpse	r2, r1
    1e28:	2a 94       	dec	r2
    1e2a:	21 e0       	ldi	r18, 0x01	; 1
    1e2c:	82 1a       	sub	r8, r18
    1e2e:	91 08       	sbc	r9, r1
    1e30:	81 14       	cp	r8, r1
    1e32:	91 04       	cpc	r9, r1
    1e34:	79 f7       	brne	.-34     	; 0x1e14 <vfprintf+0x19a>
    1e36:	e1 c0       	rjmp	.+450    	; 0x1ffa <vfprintf+0x380>
    1e38:	84 36       	cpi	r24, 0x64	; 100
    1e3a:	11 f0       	breq	.+4      	; 0x1e40 <vfprintf+0x1c6>
    1e3c:	89 36       	cpi	r24, 0x69	; 105
    1e3e:	39 f5       	brne	.+78     	; 0x1e8e <vfprintf+0x214>
    1e40:	f8 01       	movw	r30, r16
    1e42:	37 fe       	sbrs	r3, 7
    1e44:	07 c0       	rjmp	.+14     	; 0x1e54 <vfprintf+0x1da>
    1e46:	60 81       	ld	r22, Z
    1e48:	71 81       	ldd	r23, Z+1	; 0x01
    1e4a:	82 81       	ldd	r24, Z+2	; 0x02
    1e4c:	93 81       	ldd	r25, Z+3	; 0x03
    1e4e:	0c 5f       	subi	r16, 0xFC	; 252
    1e50:	1f 4f       	sbci	r17, 0xFF	; 255
    1e52:	08 c0       	rjmp	.+16     	; 0x1e64 <vfprintf+0x1ea>
    1e54:	60 81       	ld	r22, Z
    1e56:	71 81       	ldd	r23, Z+1	; 0x01
    1e58:	07 2e       	mov	r0, r23
    1e5a:	00 0c       	add	r0, r0
    1e5c:	88 0b       	sbc	r24, r24
    1e5e:	99 0b       	sbc	r25, r25
    1e60:	0e 5f       	subi	r16, 0xFE	; 254
    1e62:	1f 4f       	sbci	r17, 0xFF	; 255
    1e64:	f3 2d       	mov	r31, r3
    1e66:	ff 76       	andi	r31, 0x6F	; 111
    1e68:	3f 2e       	mov	r3, r31
    1e6a:	97 ff       	sbrs	r25, 7
    1e6c:	09 c0       	rjmp	.+18     	; 0x1e80 <vfprintf+0x206>
    1e6e:	90 95       	com	r25
    1e70:	80 95       	com	r24
    1e72:	70 95       	com	r23
    1e74:	61 95       	neg	r22
    1e76:	7f 4f       	sbci	r23, 0xFF	; 255
    1e78:	8f 4f       	sbci	r24, 0xFF	; 255
    1e7a:	9f 4f       	sbci	r25, 0xFF	; 255
    1e7c:	f0 68       	ori	r31, 0x80	; 128
    1e7e:	3f 2e       	mov	r3, r31
    1e80:	2a e0       	ldi	r18, 0x0A	; 10
    1e82:	30 e0       	ldi	r19, 0x00	; 0
    1e84:	a3 01       	movw	r20, r6
    1e86:	1d d1       	rcall	.+570    	; 0x20c2 <__ultoa_invert>
    1e88:	88 2e       	mov	r8, r24
    1e8a:	86 18       	sub	r8, r6
    1e8c:	44 c0       	rjmp	.+136    	; 0x1f16 <vfprintf+0x29c>
    1e8e:	85 37       	cpi	r24, 0x75	; 117
    1e90:	31 f4       	brne	.+12     	; 0x1e9e <vfprintf+0x224>
    1e92:	23 2d       	mov	r18, r3
    1e94:	2f 7e       	andi	r18, 0xEF	; 239
    1e96:	b2 2e       	mov	r11, r18
    1e98:	2a e0       	ldi	r18, 0x0A	; 10
    1e9a:	30 e0       	ldi	r19, 0x00	; 0
    1e9c:	25 c0       	rjmp	.+74     	; 0x1ee8 <vfprintf+0x26e>
    1e9e:	93 2d       	mov	r25, r3
    1ea0:	99 7f       	andi	r25, 0xF9	; 249
    1ea2:	b9 2e       	mov	r11, r25
    1ea4:	8f 36       	cpi	r24, 0x6F	; 111
    1ea6:	c1 f0       	breq	.+48     	; 0x1ed8 <vfprintf+0x25e>
    1ea8:	18 f4       	brcc	.+6      	; 0x1eb0 <vfprintf+0x236>
    1eaa:	88 35       	cpi	r24, 0x58	; 88
    1eac:	79 f0       	breq	.+30     	; 0x1ecc <vfprintf+0x252>
    1eae:	ae c0       	rjmp	.+348    	; 0x200c <vfprintf+0x392>
    1eb0:	80 37       	cpi	r24, 0x70	; 112
    1eb2:	19 f0       	breq	.+6      	; 0x1eba <vfprintf+0x240>
    1eb4:	88 37       	cpi	r24, 0x78	; 120
    1eb6:	21 f0       	breq	.+8      	; 0x1ec0 <vfprintf+0x246>
    1eb8:	a9 c0       	rjmp	.+338    	; 0x200c <vfprintf+0x392>
    1eba:	e9 2f       	mov	r30, r25
    1ebc:	e0 61       	ori	r30, 0x10	; 16
    1ebe:	be 2e       	mov	r11, r30
    1ec0:	b4 fe       	sbrs	r11, 4
    1ec2:	0d c0       	rjmp	.+26     	; 0x1ede <vfprintf+0x264>
    1ec4:	fb 2d       	mov	r31, r11
    1ec6:	f4 60       	ori	r31, 0x04	; 4
    1ec8:	bf 2e       	mov	r11, r31
    1eca:	09 c0       	rjmp	.+18     	; 0x1ede <vfprintf+0x264>
    1ecc:	34 fe       	sbrs	r3, 4
    1ece:	0a c0       	rjmp	.+20     	; 0x1ee4 <vfprintf+0x26a>
    1ed0:	29 2f       	mov	r18, r25
    1ed2:	26 60       	ori	r18, 0x06	; 6
    1ed4:	b2 2e       	mov	r11, r18
    1ed6:	06 c0       	rjmp	.+12     	; 0x1ee4 <vfprintf+0x26a>
    1ed8:	28 e0       	ldi	r18, 0x08	; 8
    1eda:	30 e0       	ldi	r19, 0x00	; 0
    1edc:	05 c0       	rjmp	.+10     	; 0x1ee8 <vfprintf+0x26e>
    1ede:	20 e1       	ldi	r18, 0x10	; 16
    1ee0:	30 e0       	ldi	r19, 0x00	; 0
    1ee2:	02 c0       	rjmp	.+4      	; 0x1ee8 <vfprintf+0x26e>
    1ee4:	20 e1       	ldi	r18, 0x10	; 16
    1ee6:	32 e0       	ldi	r19, 0x02	; 2
    1ee8:	f8 01       	movw	r30, r16
    1eea:	b7 fe       	sbrs	r11, 7
    1eec:	07 c0       	rjmp	.+14     	; 0x1efc <vfprintf+0x282>
    1eee:	60 81       	ld	r22, Z
    1ef0:	71 81       	ldd	r23, Z+1	; 0x01
    1ef2:	82 81       	ldd	r24, Z+2	; 0x02
    1ef4:	93 81       	ldd	r25, Z+3	; 0x03
    1ef6:	0c 5f       	subi	r16, 0xFC	; 252
    1ef8:	1f 4f       	sbci	r17, 0xFF	; 255
    1efa:	06 c0       	rjmp	.+12     	; 0x1f08 <vfprintf+0x28e>
    1efc:	60 81       	ld	r22, Z
    1efe:	71 81       	ldd	r23, Z+1	; 0x01
    1f00:	80 e0       	ldi	r24, 0x00	; 0
    1f02:	90 e0       	ldi	r25, 0x00	; 0
    1f04:	0e 5f       	subi	r16, 0xFE	; 254
    1f06:	1f 4f       	sbci	r17, 0xFF	; 255
    1f08:	a3 01       	movw	r20, r6
    1f0a:	db d0       	rcall	.+438    	; 0x20c2 <__ultoa_invert>
    1f0c:	88 2e       	mov	r8, r24
    1f0e:	86 18       	sub	r8, r6
    1f10:	fb 2d       	mov	r31, r11
    1f12:	ff 77       	andi	r31, 0x7F	; 127
    1f14:	3f 2e       	mov	r3, r31
    1f16:	36 fe       	sbrs	r3, 6
    1f18:	0d c0       	rjmp	.+26     	; 0x1f34 <vfprintf+0x2ba>
    1f1a:	23 2d       	mov	r18, r3
    1f1c:	2e 7f       	andi	r18, 0xFE	; 254
    1f1e:	a2 2e       	mov	r10, r18
    1f20:	89 14       	cp	r8, r9
    1f22:	58 f4       	brcc	.+22     	; 0x1f3a <vfprintf+0x2c0>
    1f24:	34 fe       	sbrs	r3, 4
    1f26:	0b c0       	rjmp	.+22     	; 0x1f3e <vfprintf+0x2c4>
    1f28:	32 fc       	sbrc	r3, 2
    1f2a:	09 c0       	rjmp	.+18     	; 0x1f3e <vfprintf+0x2c4>
    1f2c:	83 2d       	mov	r24, r3
    1f2e:	8e 7e       	andi	r24, 0xEE	; 238
    1f30:	a8 2e       	mov	r10, r24
    1f32:	05 c0       	rjmp	.+10     	; 0x1f3e <vfprintf+0x2c4>
    1f34:	b8 2c       	mov	r11, r8
    1f36:	a3 2c       	mov	r10, r3
    1f38:	03 c0       	rjmp	.+6      	; 0x1f40 <vfprintf+0x2c6>
    1f3a:	b8 2c       	mov	r11, r8
    1f3c:	01 c0       	rjmp	.+2      	; 0x1f40 <vfprintf+0x2c6>
    1f3e:	b9 2c       	mov	r11, r9
    1f40:	a4 fe       	sbrs	r10, 4
    1f42:	0f c0       	rjmp	.+30     	; 0x1f62 <vfprintf+0x2e8>
    1f44:	fe 01       	movw	r30, r28
    1f46:	e8 0d       	add	r30, r8
    1f48:	f1 1d       	adc	r31, r1
    1f4a:	80 81       	ld	r24, Z
    1f4c:	80 33       	cpi	r24, 0x30	; 48
    1f4e:	21 f4       	brne	.+8      	; 0x1f58 <vfprintf+0x2de>
    1f50:	9a 2d       	mov	r25, r10
    1f52:	99 7e       	andi	r25, 0xE9	; 233
    1f54:	a9 2e       	mov	r10, r25
    1f56:	09 c0       	rjmp	.+18     	; 0x1f6a <vfprintf+0x2f0>
    1f58:	a2 fe       	sbrs	r10, 2
    1f5a:	06 c0       	rjmp	.+12     	; 0x1f68 <vfprintf+0x2ee>
    1f5c:	b3 94       	inc	r11
    1f5e:	b3 94       	inc	r11
    1f60:	04 c0       	rjmp	.+8      	; 0x1f6a <vfprintf+0x2f0>
    1f62:	8a 2d       	mov	r24, r10
    1f64:	86 78       	andi	r24, 0x86	; 134
    1f66:	09 f0       	breq	.+2      	; 0x1f6a <vfprintf+0x2f0>
    1f68:	b3 94       	inc	r11
    1f6a:	a3 fc       	sbrc	r10, 3
    1f6c:	10 c0       	rjmp	.+32     	; 0x1f8e <vfprintf+0x314>
    1f6e:	a0 fe       	sbrs	r10, 0
    1f70:	06 c0       	rjmp	.+12     	; 0x1f7e <vfprintf+0x304>
    1f72:	b2 14       	cp	r11, r2
    1f74:	80 f4       	brcc	.+32     	; 0x1f96 <vfprintf+0x31c>
    1f76:	28 0c       	add	r2, r8
    1f78:	92 2c       	mov	r9, r2
    1f7a:	9b 18       	sub	r9, r11
    1f7c:	0d c0       	rjmp	.+26     	; 0x1f98 <vfprintf+0x31e>
    1f7e:	b2 14       	cp	r11, r2
    1f80:	58 f4       	brcc	.+22     	; 0x1f98 <vfprintf+0x31e>
    1f82:	b6 01       	movw	r22, r12
    1f84:	80 e2       	ldi	r24, 0x20	; 32
    1f86:	90 e0       	ldi	r25, 0x00	; 0
    1f88:	60 d0       	rcall	.+192    	; 0x204a <fputc>
    1f8a:	b3 94       	inc	r11
    1f8c:	f8 cf       	rjmp	.-16     	; 0x1f7e <vfprintf+0x304>
    1f8e:	b2 14       	cp	r11, r2
    1f90:	18 f4       	brcc	.+6      	; 0x1f98 <vfprintf+0x31e>
    1f92:	2b 18       	sub	r2, r11
    1f94:	02 c0       	rjmp	.+4      	; 0x1f9a <vfprintf+0x320>
    1f96:	98 2c       	mov	r9, r8
    1f98:	21 2c       	mov	r2, r1
    1f9a:	a4 fe       	sbrs	r10, 4
    1f9c:	0f c0       	rjmp	.+30     	; 0x1fbc <vfprintf+0x342>
    1f9e:	b6 01       	movw	r22, r12
    1fa0:	80 e3       	ldi	r24, 0x30	; 48
    1fa2:	90 e0       	ldi	r25, 0x00	; 0
    1fa4:	52 d0       	rcall	.+164    	; 0x204a <fputc>
    1fa6:	a2 fe       	sbrs	r10, 2
    1fa8:	16 c0       	rjmp	.+44     	; 0x1fd6 <vfprintf+0x35c>
    1faa:	a1 fc       	sbrc	r10, 1
    1fac:	03 c0       	rjmp	.+6      	; 0x1fb4 <vfprintf+0x33a>
    1fae:	88 e7       	ldi	r24, 0x78	; 120
    1fb0:	90 e0       	ldi	r25, 0x00	; 0
    1fb2:	02 c0       	rjmp	.+4      	; 0x1fb8 <vfprintf+0x33e>
    1fb4:	88 e5       	ldi	r24, 0x58	; 88
    1fb6:	90 e0       	ldi	r25, 0x00	; 0
    1fb8:	b6 01       	movw	r22, r12
    1fba:	0c c0       	rjmp	.+24     	; 0x1fd4 <vfprintf+0x35a>
    1fbc:	8a 2d       	mov	r24, r10
    1fbe:	86 78       	andi	r24, 0x86	; 134
    1fc0:	51 f0       	breq	.+20     	; 0x1fd6 <vfprintf+0x35c>
    1fc2:	a1 fe       	sbrs	r10, 1
    1fc4:	02 c0       	rjmp	.+4      	; 0x1fca <vfprintf+0x350>
    1fc6:	8b e2       	ldi	r24, 0x2B	; 43
    1fc8:	01 c0       	rjmp	.+2      	; 0x1fcc <vfprintf+0x352>
    1fca:	80 e2       	ldi	r24, 0x20	; 32
    1fcc:	a7 fc       	sbrc	r10, 7
    1fce:	8d e2       	ldi	r24, 0x2D	; 45
    1fd0:	b6 01       	movw	r22, r12
    1fd2:	90 e0       	ldi	r25, 0x00	; 0
    1fd4:	3a d0       	rcall	.+116    	; 0x204a <fputc>
    1fd6:	89 14       	cp	r8, r9
    1fd8:	30 f4       	brcc	.+12     	; 0x1fe6 <vfprintf+0x36c>
    1fda:	b6 01       	movw	r22, r12
    1fdc:	80 e3       	ldi	r24, 0x30	; 48
    1fde:	90 e0       	ldi	r25, 0x00	; 0
    1fe0:	34 d0       	rcall	.+104    	; 0x204a <fputc>
    1fe2:	9a 94       	dec	r9
    1fe4:	f8 cf       	rjmp	.-16     	; 0x1fd6 <vfprintf+0x35c>
    1fe6:	8a 94       	dec	r8
    1fe8:	f3 01       	movw	r30, r6
    1fea:	e8 0d       	add	r30, r8
    1fec:	f1 1d       	adc	r31, r1
    1fee:	80 81       	ld	r24, Z
    1ff0:	b6 01       	movw	r22, r12
    1ff2:	90 e0       	ldi	r25, 0x00	; 0
    1ff4:	2a d0       	rcall	.+84     	; 0x204a <fputc>
    1ff6:	81 10       	cpse	r8, r1
    1ff8:	f6 cf       	rjmp	.-20     	; 0x1fe6 <vfprintf+0x36c>
    1ffa:	22 20       	and	r2, r2
    1ffc:	09 f4       	brne	.+2      	; 0x2000 <vfprintf+0x386>
    1ffe:	4e ce       	rjmp	.-868    	; 0x1c9c <vfprintf+0x22>
    2000:	b6 01       	movw	r22, r12
    2002:	80 e2       	ldi	r24, 0x20	; 32
    2004:	90 e0       	ldi	r25, 0x00	; 0
    2006:	21 d0       	rcall	.+66     	; 0x204a <fputc>
    2008:	2a 94       	dec	r2
    200a:	f7 cf       	rjmp	.-18     	; 0x1ffa <vfprintf+0x380>
    200c:	f6 01       	movw	r30, r12
    200e:	86 81       	ldd	r24, Z+6	; 0x06
    2010:	97 81       	ldd	r25, Z+7	; 0x07
    2012:	02 c0       	rjmp	.+4      	; 0x2018 <vfprintf+0x39e>
    2014:	8f ef       	ldi	r24, 0xFF	; 255
    2016:	9f ef       	ldi	r25, 0xFF	; 255
    2018:	2b 96       	adiw	r28, 0x0b	; 11
    201a:	e2 e1       	ldi	r30, 0x12	; 18
    201c:	cc c0       	rjmp	.+408    	; 0x21b6 <__epilogue_restores__>

0000201e <strnlen_P>:
    201e:	fc 01       	movw	r30, r24
    2020:	05 90       	lpm	r0, Z+
    2022:	61 50       	subi	r22, 0x01	; 1
    2024:	70 40       	sbci	r23, 0x00	; 0
    2026:	01 10       	cpse	r0, r1
    2028:	d8 f7       	brcc	.-10     	; 0x2020 <strnlen_P+0x2>
    202a:	80 95       	com	r24
    202c:	90 95       	com	r25
    202e:	8e 0f       	add	r24, r30
    2030:	9f 1f       	adc	r25, r31
    2032:	08 95       	ret

00002034 <strnlen>:
    2034:	fc 01       	movw	r30, r24
    2036:	61 50       	subi	r22, 0x01	; 1
    2038:	70 40       	sbci	r23, 0x00	; 0
    203a:	01 90       	ld	r0, Z+
    203c:	01 10       	cpse	r0, r1
    203e:	d8 f7       	brcc	.-10     	; 0x2036 <strnlen+0x2>
    2040:	80 95       	com	r24
    2042:	90 95       	com	r25
    2044:	8e 0f       	add	r24, r30
    2046:	9f 1f       	adc	r25, r31
    2048:	08 95       	ret

0000204a <fputc>:
    204a:	0f 93       	push	r16
    204c:	1f 93       	push	r17
    204e:	cf 93       	push	r28
    2050:	df 93       	push	r29
    2052:	fb 01       	movw	r30, r22
    2054:	23 81       	ldd	r18, Z+3	; 0x03
    2056:	21 fd       	sbrc	r18, 1
    2058:	03 c0       	rjmp	.+6      	; 0x2060 <fputc+0x16>
    205a:	8f ef       	ldi	r24, 0xFF	; 255
    205c:	9f ef       	ldi	r25, 0xFF	; 255
    205e:	2c c0       	rjmp	.+88     	; 0x20b8 <fputc+0x6e>
    2060:	22 ff       	sbrs	r18, 2
    2062:	16 c0       	rjmp	.+44     	; 0x2090 <fputc+0x46>
    2064:	46 81       	ldd	r20, Z+6	; 0x06
    2066:	57 81       	ldd	r21, Z+7	; 0x07
    2068:	24 81       	ldd	r18, Z+4	; 0x04
    206a:	35 81       	ldd	r19, Z+5	; 0x05
    206c:	42 17       	cp	r20, r18
    206e:	53 07       	cpc	r21, r19
    2070:	44 f4       	brge	.+16     	; 0x2082 <fputc+0x38>
    2072:	a0 81       	ld	r26, Z
    2074:	b1 81       	ldd	r27, Z+1	; 0x01
    2076:	9d 01       	movw	r18, r26
    2078:	2f 5f       	subi	r18, 0xFF	; 255
    207a:	3f 4f       	sbci	r19, 0xFF	; 255
    207c:	31 83       	std	Z+1, r19	; 0x01
    207e:	20 83       	st	Z, r18
    2080:	8c 93       	st	X, r24
    2082:	26 81       	ldd	r18, Z+6	; 0x06
    2084:	37 81       	ldd	r19, Z+7	; 0x07
    2086:	2f 5f       	subi	r18, 0xFF	; 255
    2088:	3f 4f       	sbci	r19, 0xFF	; 255
    208a:	37 83       	std	Z+7, r19	; 0x07
    208c:	26 83       	std	Z+6, r18	; 0x06
    208e:	14 c0       	rjmp	.+40     	; 0x20b8 <fputc+0x6e>
    2090:	8b 01       	movw	r16, r22
    2092:	ec 01       	movw	r28, r24
    2094:	fb 01       	movw	r30, r22
    2096:	00 84       	ldd	r0, Z+8	; 0x08
    2098:	f1 85       	ldd	r31, Z+9	; 0x09
    209a:	e0 2d       	mov	r30, r0
    209c:	09 95       	icall
    209e:	89 2b       	or	r24, r25
    20a0:	e1 f6       	brne	.-72     	; 0x205a <fputc+0x10>
    20a2:	d8 01       	movw	r26, r16
    20a4:	16 96       	adiw	r26, 0x06	; 6
    20a6:	8d 91       	ld	r24, X+
    20a8:	9c 91       	ld	r25, X
    20aa:	17 97       	sbiw	r26, 0x07	; 7
    20ac:	01 96       	adiw	r24, 0x01	; 1
    20ae:	17 96       	adiw	r26, 0x07	; 7
    20b0:	9c 93       	st	X, r25
    20b2:	8e 93       	st	-X, r24
    20b4:	16 97       	sbiw	r26, 0x06	; 6
    20b6:	ce 01       	movw	r24, r28
    20b8:	df 91       	pop	r29
    20ba:	cf 91       	pop	r28
    20bc:	1f 91       	pop	r17
    20be:	0f 91       	pop	r16
    20c0:	08 95       	ret

000020c2 <__ultoa_invert>:
    20c2:	fa 01       	movw	r30, r20
    20c4:	aa 27       	eor	r26, r26
    20c6:	28 30       	cpi	r18, 0x08	; 8
    20c8:	51 f1       	breq	.+84     	; 0x211e <__ultoa_invert+0x5c>
    20ca:	20 31       	cpi	r18, 0x10	; 16
    20cc:	81 f1       	breq	.+96     	; 0x212e <__ultoa_invert+0x6c>
    20ce:	e8 94       	clt
    20d0:	6f 93       	push	r22
    20d2:	6e 7f       	andi	r22, 0xFE	; 254
    20d4:	6e 5f       	subi	r22, 0xFE	; 254
    20d6:	7f 4f       	sbci	r23, 0xFF	; 255
    20d8:	8f 4f       	sbci	r24, 0xFF	; 255
    20da:	9f 4f       	sbci	r25, 0xFF	; 255
    20dc:	af 4f       	sbci	r26, 0xFF	; 255
    20de:	b1 e0       	ldi	r27, 0x01	; 1
    20e0:	3e d0       	rcall	.+124    	; 0x215e <__ultoa_invert+0x9c>
    20e2:	b4 e0       	ldi	r27, 0x04	; 4
    20e4:	3c d0       	rcall	.+120    	; 0x215e <__ultoa_invert+0x9c>
    20e6:	67 0f       	add	r22, r23
    20e8:	78 1f       	adc	r23, r24
    20ea:	89 1f       	adc	r24, r25
    20ec:	9a 1f       	adc	r25, r26
    20ee:	a1 1d       	adc	r26, r1
    20f0:	68 0f       	add	r22, r24
    20f2:	79 1f       	adc	r23, r25
    20f4:	8a 1f       	adc	r24, r26
    20f6:	91 1d       	adc	r25, r1
    20f8:	a1 1d       	adc	r26, r1
    20fa:	6a 0f       	add	r22, r26
    20fc:	71 1d       	adc	r23, r1
    20fe:	81 1d       	adc	r24, r1
    2100:	91 1d       	adc	r25, r1
    2102:	a1 1d       	adc	r26, r1
    2104:	20 d0       	rcall	.+64     	; 0x2146 <__ultoa_invert+0x84>
    2106:	09 f4       	brne	.+2      	; 0x210a <__ultoa_invert+0x48>
    2108:	68 94       	set
    210a:	3f 91       	pop	r19
    210c:	2a e0       	ldi	r18, 0x0A	; 10
    210e:	26 9f       	mul	r18, r22
    2110:	11 24       	eor	r1, r1
    2112:	30 19       	sub	r19, r0
    2114:	30 5d       	subi	r19, 0xD0	; 208
    2116:	31 93       	st	Z+, r19
    2118:	de f6       	brtc	.-74     	; 0x20d0 <__ultoa_invert+0xe>
    211a:	cf 01       	movw	r24, r30
    211c:	08 95       	ret
    211e:	46 2f       	mov	r20, r22
    2120:	47 70       	andi	r20, 0x07	; 7
    2122:	40 5d       	subi	r20, 0xD0	; 208
    2124:	41 93       	st	Z+, r20
    2126:	b3 e0       	ldi	r27, 0x03	; 3
    2128:	0f d0       	rcall	.+30     	; 0x2148 <__ultoa_invert+0x86>
    212a:	c9 f7       	brne	.-14     	; 0x211e <__ultoa_invert+0x5c>
    212c:	f6 cf       	rjmp	.-20     	; 0x211a <__ultoa_invert+0x58>
    212e:	46 2f       	mov	r20, r22
    2130:	4f 70       	andi	r20, 0x0F	; 15
    2132:	40 5d       	subi	r20, 0xD0	; 208
    2134:	4a 33       	cpi	r20, 0x3A	; 58
    2136:	18 f0       	brcs	.+6      	; 0x213e <__ultoa_invert+0x7c>
    2138:	49 5d       	subi	r20, 0xD9	; 217
    213a:	31 fd       	sbrc	r19, 1
    213c:	40 52       	subi	r20, 0x20	; 32
    213e:	41 93       	st	Z+, r20
    2140:	02 d0       	rcall	.+4      	; 0x2146 <__ultoa_invert+0x84>
    2142:	a9 f7       	brne	.-22     	; 0x212e <__ultoa_invert+0x6c>
    2144:	ea cf       	rjmp	.-44     	; 0x211a <__ultoa_invert+0x58>
    2146:	b4 e0       	ldi	r27, 0x04	; 4
    2148:	a6 95       	lsr	r26
    214a:	97 95       	ror	r25
    214c:	87 95       	ror	r24
    214e:	77 95       	ror	r23
    2150:	67 95       	ror	r22
    2152:	ba 95       	dec	r27
    2154:	c9 f7       	brne	.-14     	; 0x2148 <__ultoa_invert+0x86>
    2156:	00 97       	sbiw	r24, 0x00	; 0
    2158:	61 05       	cpc	r22, r1
    215a:	71 05       	cpc	r23, r1
    215c:	08 95       	ret
    215e:	9b 01       	movw	r18, r22
    2160:	ac 01       	movw	r20, r24
    2162:	0a 2e       	mov	r0, r26
    2164:	06 94       	lsr	r0
    2166:	57 95       	ror	r21
    2168:	47 95       	ror	r20
    216a:	37 95       	ror	r19
    216c:	27 95       	ror	r18
    216e:	ba 95       	dec	r27
    2170:	c9 f7       	brne	.-14     	; 0x2164 <__ultoa_invert+0xa2>
    2172:	62 0f       	add	r22, r18
    2174:	73 1f       	adc	r23, r19
    2176:	84 1f       	adc	r24, r20
    2178:	95 1f       	adc	r25, r21
    217a:	a0 1d       	adc	r26, r0
    217c:	08 95       	ret

0000217e <__prologue_saves__>:
    217e:	2f 92       	push	r2
    2180:	3f 92       	push	r3
    2182:	4f 92       	push	r4
    2184:	5f 92       	push	r5
    2186:	6f 92       	push	r6
    2188:	7f 92       	push	r7
    218a:	8f 92       	push	r8
    218c:	9f 92       	push	r9
    218e:	af 92       	push	r10
    2190:	bf 92       	push	r11
    2192:	cf 92       	push	r12
    2194:	df 92       	push	r13
    2196:	ef 92       	push	r14
    2198:	ff 92       	push	r15
    219a:	0f 93       	push	r16
    219c:	1f 93       	push	r17
    219e:	cf 93       	push	r28
    21a0:	df 93       	push	r29
    21a2:	cd b7       	in	r28, 0x3d	; 61
    21a4:	de b7       	in	r29, 0x3e	; 62
    21a6:	ca 1b       	sub	r28, r26
    21a8:	db 0b       	sbc	r29, r27
    21aa:	0f b6       	in	r0, 0x3f	; 63
    21ac:	f8 94       	cli
    21ae:	de bf       	out	0x3e, r29	; 62
    21b0:	0f be       	out	0x3f, r0	; 63
    21b2:	cd bf       	out	0x3d, r28	; 61
    21b4:	09 94       	ijmp

000021b6 <__epilogue_restores__>:
    21b6:	2a 88       	ldd	r2, Y+18	; 0x12
    21b8:	39 88       	ldd	r3, Y+17	; 0x11
    21ba:	48 88       	ldd	r4, Y+16	; 0x10
    21bc:	5f 84       	ldd	r5, Y+15	; 0x0f
    21be:	6e 84       	ldd	r6, Y+14	; 0x0e
    21c0:	7d 84       	ldd	r7, Y+13	; 0x0d
    21c2:	8c 84       	ldd	r8, Y+12	; 0x0c
    21c4:	9b 84       	ldd	r9, Y+11	; 0x0b
    21c6:	aa 84       	ldd	r10, Y+10	; 0x0a
    21c8:	b9 84       	ldd	r11, Y+9	; 0x09
    21ca:	c8 84       	ldd	r12, Y+8	; 0x08
    21cc:	df 80       	ldd	r13, Y+7	; 0x07
    21ce:	ee 80       	ldd	r14, Y+6	; 0x06
    21d0:	fd 80       	ldd	r15, Y+5	; 0x05
    21d2:	0c 81       	ldd	r16, Y+4	; 0x04
    21d4:	1b 81       	ldd	r17, Y+3	; 0x03
    21d6:	aa 81       	ldd	r26, Y+2	; 0x02
    21d8:	b9 81       	ldd	r27, Y+1	; 0x01
    21da:	ce 0f       	add	r28, r30
    21dc:	d1 1d       	adc	r29, r1
    21de:	0f b6       	in	r0, 0x3f	; 63
    21e0:	f8 94       	cli
    21e2:	de bf       	out	0x3e, r29	; 62
    21e4:	0f be       	out	0x3f, r0	; 63
    21e6:	cd bf       	out	0x3d, r28	; 61
    21e8:	ed 01       	movw	r28, r26
    21ea:	08 95       	ret

000021ec <_exit>:
    21ec:	f8 94       	cli

000021ee <__stop_program>:
    21ee:	ff cf       	rjmp	.-2      	; 0x21ee <__stop_program>
